
A6_TGH1_App.elf:     file format elf32-littlearm

Sections:
Idx Name          Size      VMA       LMA       File off  Algn
  0 .text         000046d4  00000000  00000000  00010000  2**2
                  CONTENTS, ALLOC, LOAD, READONLY, CODE
  1 .ARM.exidx    00000008  000046d4  000046d4  000146d4  2**2
                  CONTENTS, ALLOC, LOAD, READONLY, DATA
  2 .relocate     00000174  20000000  000046dc  00020000  2**2
                  CONTENTS, ALLOC, LOAD, CODE
  3 .bss          00000638  20000174  00004850  00020174  2**2
                  ALLOC
  4 .stack        00002004  200007ac  00004e88  00020174  2**0
                  ALLOC
  5 .ARM.attributes 00000028  00000000  00000000  00020174  2**0
                  CONTENTS, READONLY
  6 .comment      00000059  00000000  00000000  0002019c  2**0
                  CONTENTS, READONLY
  7 .debug_info   0002cced  00000000  00000000  000201f5  2**0
                  CONTENTS, READONLY, DEBUGGING
  8 .debug_abbrev 00003f99  00000000  00000000  0004cee2  2**0
                  CONTENTS, READONLY, DEBUGGING
  9 .debug_loc    00005b54  00000000  00000000  00050e7b  2**0
                  CONTENTS, READONLY, DEBUGGING
 10 .debug_aranges 00000610  00000000  00000000  000569cf  2**0
                  CONTENTS, READONLY, DEBUGGING
 11 .debug_ranges 00000668  00000000  00000000  00056fdf  2**0
                  CONTENTS, READONLY, DEBUGGING
 12 .debug_macro  0001af5d  00000000  00000000  00057647  2**0
                  CONTENTS, READONLY, DEBUGGING
 13 .debug_line   0000cd9e  00000000  00000000  000725a4  2**0
                  CONTENTS, READONLY, DEBUGGING
 14 .debug_str    0008be46  00000000  00000000  0007f342  2**0
                  CONTENTS, READONLY, DEBUGGING
 15 .debug_frame  00001354  00000000  00000000  0010b188  2**2
                  CONTENTS, READONLY, DEBUGGING

Disassembly of section .text:

00000000 <exception_table>:
       0:	b0 27 00 20 a5 1d 00 00 a1 1d 00 00 a1 1d 00 00     .'. ............
	...
      2c:	a1 1d 00 00 00 00 00 00 00 00 00 00 a1 1d 00 00     ................
      3c:	a1 1d 00 00 a1 1d 00 00 a1 1d 00 00 a1 1d 00 00     ................
      4c:	a1 1d 00 00 a1 1d 00 00 a1 1d 00 00 a1 1d 00 00     ................
      5c:	a1 1d 00 00 a1 1d 00 00 d5 0f 00 00 e5 0f 00 00     ................
      6c:	f5 0f 00 00 05 10 00 00 15 10 00 00 25 10 00 00     ............%...
      7c:	a1 1d 00 00 a1 1d 00 00 a1 1d 00 00 a1 1d 00 00     ................
      8c:	a1 1d 00 00 a1 1d 00 00 00 00 00 00 00 00 00 00     ................
      9c:	a1 1d 00 00 a1 1d 00 00 a1 1d 00 00 a1 1d 00 00     ................
      ac:	a1 1d 00 00 00 00 00 00                             ........

000000b4 <__do_global_dtors_aux>:
      b4:	b510      	push	{r4, lr}
      b6:	4c06      	ldr	r4, [pc, #24]	; (d0 <__do_global_dtors_aux+0x1c>)
      b8:	7823      	ldrb	r3, [r4, #0]
      ba:	2b00      	cmp	r3, #0
      bc:	d107      	bne.n	ce <__do_global_dtors_aux+0x1a>
      be:	4b05      	ldr	r3, [pc, #20]	; (d4 <__do_global_dtors_aux+0x20>)
      c0:	2b00      	cmp	r3, #0
      c2:	d002      	beq.n	ca <__do_global_dtors_aux+0x16>
      c4:	4804      	ldr	r0, [pc, #16]	; (d8 <__do_global_dtors_aux+0x24>)
      c6:	e000      	b.n	ca <__do_global_dtors_aux+0x16>
      c8:	bf00      	nop
      ca:	2301      	movs	r3, #1
      cc:	7023      	strb	r3, [r4, #0]
      ce:	bd10      	pop	{r4, pc}
      d0:	20000174 	.word	0x20000174
      d4:	00000000 	.word	0x00000000
      d8:	000046dc 	.word	0x000046dc

000000dc <frame_dummy>:
      dc:	4b08      	ldr	r3, [pc, #32]	; (100 <frame_dummy+0x24>)
      de:	b510      	push	{r4, lr}
      e0:	2b00      	cmp	r3, #0
      e2:	d003      	beq.n	ec <frame_dummy+0x10>
      e4:	4907      	ldr	r1, [pc, #28]	; (104 <frame_dummy+0x28>)
      e6:	4808      	ldr	r0, [pc, #32]	; (108 <frame_dummy+0x2c>)
      e8:	e000      	b.n	ec <frame_dummy+0x10>
      ea:	bf00      	nop
      ec:	4807      	ldr	r0, [pc, #28]	; (10c <frame_dummy+0x30>)
      ee:	6803      	ldr	r3, [r0, #0]
      f0:	2b00      	cmp	r3, #0
      f2:	d100      	bne.n	f6 <frame_dummy+0x1a>
      f4:	bd10      	pop	{r4, pc}
      f6:	4b06      	ldr	r3, [pc, #24]	; (110 <frame_dummy+0x34>)
      f8:	2b00      	cmp	r3, #0
      fa:	d0fb      	beq.n	f4 <frame_dummy+0x18>
      fc:	4798      	blx	r3
      fe:	e7f9      	b.n	f4 <frame_dummy+0x18>
     100:	00000000 	.word	0x00000000
     104:	20000178 	.word	0x20000178
     108:	000046dc 	.word	0x000046dc
     10c:	000046dc 	.word	0x000046dc
     110:	00000000 	.word	0x00000000

00000114 <system_board_init>:
void board_init(void);
#  pragma weak board_init=system_board_init
#endif

void system_board_init(void)
{
     114:	b5f0      	push	{r4, r5, r6, r7, lr}
     116:	b083      	sub	sp, #12
	/* Sanity check arguments */
	Assert(config);

	/* Default configuration values */
	config->direction  = PORT_PIN_DIR_INPUT;
	config->input_pull = PORT_PIN_PULL_UP;
     118:	ac01      	add	r4, sp, #4
     11a:	2501      	movs	r5, #1
     11c:	7065      	strb	r5, [r4, #1]
	config->powersave  = false;
     11e:	2700      	movs	r7, #0
     120:	70a7      	strb	r7, [r4, #2]
	struct port_config pin_conf;
	port_get_config_defaults(&pin_conf);

	/* Configure LEDs as outputs, turn them off */
	pin_conf.direction  = PORT_PIN_DIR_OUTPUT;
     122:	7025      	strb	r5, [r4, #0]
	port_pin_set_config(LED_0_PIN, &pin_conf);
     124:	0021      	movs	r1, r4
     126:	2017      	movs	r0, #23
     128:	4e06      	ldr	r6, [pc, #24]	; (144 <system_board_init+0x30>)
     12a:	47b0      	blx	r6
	PortGroup *const port_base = port_get_group_from_gpio_pin(gpio_pin);
	uint32_t pin_mask  = (1UL << (gpio_pin % 32));

	/* Set the pin to high or low atomically based on the requested level */
	if (level) {
		port_base->OUTSET.reg = pin_mask;
     12c:	2280      	movs	r2, #128	; 0x80
     12e:	0412      	lsls	r2, r2, #16
     130:	4b05      	ldr	r3, [pc, #20]	; (148 <system_board_init+0x34>)
     132:	619a      	str	r2, [r3, #24]
	port_pin_set_output_level(LED_0_PIN, LED_0_INACTIVE);

	/* Set buttons as inputs */
	pin_conf.direction  = PORT_PIN_DIR_INPUT;
     134:	7027      	strb	r7, [r4, #0]
	pin_conf.input_pull = PORT_PIN_PULL_UP;
     136:	7065      	strb	r5, [r4, #1]
	port_pin_set_config(BUTTON_0_PIN, &pin_conf);
     138:	0021      	movs	r1, r4
     13a:	2037      	movs	r0, #55	; 0x37
     13c:	47b0      	blx	r6
}
     13e:	b003      	add	sp, #12
     140:	bdf0      	pop	{r4, r5, r6, r7, pc}
     142:	46c0      	nop			; (mov r8, r8)
     144:	00000bcd 	.word	0x00000bcd
     148:	41004400 	.word	0x41004400

0000014c <i2c_master_init>:
			}

			if (module->send_nack && (((!sclsm_flag) && (tmp_data_length == 0)) ||
					((sclsm_flag) && (tmp_data_length == 1)))) {
				/* Set action to NACK */
				i2c_module->CTRLB.reg |= SERCOM_I2CM_CTRLB_ACKACT;
     14c:	b5f0      	push	{r4, r5, r6, r7, lr}
     14e:	46d6      	mov	lr, sl
			} else {
				/* Save data to buffer. */
				_i2c_master_wait_for_sync(module);
				packet->data[counter++] = i2c_module->DATA.reg;
     150:	464f      	mov	r7, r9
				/* Wait for response. */
				tmp_status = _i2c_master_wait_for_bus(module);
     152:	4646      	mov	r6, r8
			if (tmp_status != STATUS_OK) {
				break;
			}
		}

		if (module->send_stop) {
     154:	b5c0      	push	{r6, r7, lr}
     156:	b08a      	sub	sp, #40	; 0x28
     158:	0006      	movs	r6, r0
			_i2c_master_wait_for_sync(module);
			i2c_module->CTRLB.reg |= SERCOM_I2CM_CTRLB_CMD(3);
		}

		/* Save last data to buffer. */
		_i2c_master_wait_for_sync(module);
     15a:	000f      	movs	r7, r1
     15c:	0014      	movs	r4, r2
     15e:	6031      	str	r1, [r6, #0]
		packet->data[counter] = i2c_module->DATA.reg;
     160:	0008      	movs	r0, r1
     162:	4ba0      	ldr	r3, [pc, #640]	; (3e4 <i2c_master_init+0x298>)
     164:	4798      	blx	r3
     166:	4aa0      	ldr	r2, [pc, #640]	; (3e8 <i2c_master_init+0x29c>)
     168:	6a11      	ldr	r1, [r2, #32]
     16a:	1c85      	adds	r5, r0, #2
     16c:	2301      	movs	r3, #1
			_i2c_master_wait_for_sync(module);
     16e:	40ab      	lsls	r3, r5
     170:	430b      	orrs	r3, r1
     172:	6213      	str	r3, [r2, #32]
			i2c_module->CTRLB.reg |= SERCOM_I2CM_CTRLB_CMD(3);
     174:	a909      	add	r1, sp, #36	; 0x24
     176:	7b23      	ldrb	r3, [r4, #12]
     178:	700b      	strb	r3, [r1, #0]
     17a:	3014      	adds	r0, #20
     17c:	b2c5      	uxtb	r5, r0
     17e:	0028      	movs	r0, r5
				return STATUS_ERR_PACKET_COLLISION;
     180:	4b9a      	ldr	r3, [pc, #616]	; (3ec <i2c_master_init+0x2a0>)
     182:	4798      	blx	r3
     184:	0028      	movs	r0, r5
     186:	4b9a      	ldr	r3, [pc, #616]	; (3f0 <i2c_master_init+0x2a4>)
     188:	4798      	blx	r3
     18a:	7b20      	ldrb	r0, [r4, #12]
     18c:	2100      	movs	r1, #0
     18e:	4b99      	ldr	r3, [pc, #612]	; (3f4 <i2c_master_init+0x2a8>)
     190:	4798      	blx	r3
     192:	683b      	ldr	r3, [r7, #0]
     194:	201c      	movs	r0, #28
     196:	079b      	lsls	r3, r3, #30
     198:	d505      	bpl.n	1a6 <i2c_master_init+0x5a>
     19a:	b00a      	add	sp, #40	; 0x28
     19c:	bc1c      	pop	{r2, r3, r4}
     19e:	4690      	mov	r8, r2
}
     1a0:	4699      	mov	r9, r3
     1a2:	46a2      	mov	sl, r4
     1a4:	bdf0      	pop	{r4, r5, r6, r7, pc}
	if (i2c_module->CTRLA.reg & SERCOM_I2CM_CTRLA_SWRST) {
     1a6:	683b      	ldr	r3, [r7, #0]
		return STATUS_BUSY;
     1a8:	3817      	subs	r0, #23
	if (i2c_module->CTRLA.reg & SERCOM_I2CM_CTRLA_SWRST) {
     1aa:	07db      	lsls	r3, r3, #31
     1ac:	d4f5      	bmi.n	19a <i2c_master_init+0x4e>
	uint8_t instance_index = _sercom_get_sercom_inst_index(module->hw);
     1ae:	6830      	ldr	r0, [r6, #0]
     1b0:	4b8c      	ldr	r3, [pc, #560]	; (3e4 <i2c_master_init+0x298>)
     1b2:	4699      	mov	r9, r3
     1b4:	4798      	blx	r3
     1b6:	0005      	movs	r5, r0
	_sercom_set_handler(instance_index, _i2c_master_interrupt_handler);
     1b8:	498f      	ldr	r1, [pc, #572]	; (3f8 <i2c_master_init+0x2ac>)
     1ba:	4b90      	ldr	r3, [pc, #576]	; (3fc <i2c_master_init+0x2b0>)
     1bc:	4798      	blx	r3
	_sercom_instances[instance_index] = module;
     1be:	00ad      	lsls	r5, r5, #2
     1c0:	4b8f      	ldr	r3, [pc, #572]	; (400 <i2c_master_init+0x2b4>)
     1c2:	50ee      	str	r6, [r5, r3]
	module->registered_callback = 0;
     1c4:	2300      	movs	r3, #0
     1c6:	7633      	strb	r3, [r6, #24]
	module->enabled_callback = 0;
     1c8:	7673      	strb	r3, [r6, #25]
	module->buffer_length = 0;
     1ca:	2500      	movs	r5, #0
     1cc:	8373      	strh	r3, [r6, #26]
	module->buffer_remaining = 0;
     1ce:	83b3      	strh	r3, [r6, #28]
	module->status = STATUS_OK;
     1d0:	2225      	movs	r2, #37	; 0x25
     1d2:	54b5      	strb	r5, [r6, r2]
	module->buffer = NULL;
     1d4:	6233      	str	r3, [r6, #32]
	i2c_module->CTRLA.reg = SERCOM_I2CM_CTRLA_MODE(0x5);
     1d6:	3314      	adds	r3, #20
     1d8:	603b      	str	r3, [r7, #0]
	SercomI2cm *const i2c_module = &(module->hw->I2CM);
     1da:	6833      	ldr	r3, [r6, #0]
     1dc:	4698      	mov	r8, r3
	uint8_t sercom_index = _sercom_get_sercom_inst_index(sercom_hw);
     1de:	0018      	movs	r0, r3
     1e0:	47c8      	blx	r9
     1e2:	4681      	mov	r9, r0
{
	/* Sanity check arguments */
	Assert(config);

	/* Default configuration values */
	config->mux_position = SYSTEM_PINMUX_GPIO;
     1e4:	2380      	movs	r3, #128	; 0x80
     1e6:	aa08      	add	r2, sp, #32
     1e8:	7013      	strb	r3, [r2, #0]
	config->direction    = SYSTEM_PINMUX_PIN_DIR_INPUT;
     1ea:	7055      	strb	r5, [r2, #1]
	config->input_pull   = SYSTEM_PINMUX_PIN_PULL_UP;
     1ec:	2301      	movs	r3, #1
     1ee:	7093      	strb	r3, [r2, #2]
	config->powersave    = false;
     1f0:	70d5      	strb	r5, [r2, #3]
	uint32_t pad0 = config->pinmux_pad0;
     1f2:	69e0      	ldr	r0, [r4, #28]
	uint32_t pad1 = config->pinmux_pad1;
     1f4:	6a27      	ldr	r7, [r4, #32]
	if (pad0 == PINMUX_DEFAULT) {
     1f6:	2800      	cmp	r0, #0
     1f8:	d100      	bne.n	1fc <i2c_master_init+0xb0>
     1fa:	e0af      	b.n	35c <i2c_master_init+0x210>
	pin_conf.mux_position = pad0 & 0xFFFF;
     1fc:	ab08      	add	r3, sp, #32
     1fe:	7018      	strb	r0, [r3, #0]
	pin_conf.direction    = SYSTEM_PINMUX_PIN_DIR_OUTPUT_WITH_READBACK;
     200:	2302      	movs	r3, #2
     202:	aa08      	add	r2, sp, #32
     204:	7053      	strb	r3, [r2, #1]
	system_pinmux_pin_set_config(pad0 >> 16, &pin_conf);
     206:	0c00      	lsrs	r0, r0, #16
     208:	b2c0      	uxtb	r0, r0
     20a:	0011      	movs	r1, r2
     20c:	4b7d      	ldr	r3, [pc, #500]	; (404 <i2c_master_init+0x2b8>)
     20e:	4798      	blx	r3
	if (pad1 == PINMUX_DEFAULT) {
     210:	2f00      	cmp	r7, #0
     212:	d100      	bne.n	216 <i2c_master_init+0xca>
     214:	e0a7      	b.n	366 <i2c_master_init+0x21a>
	pin_conf.mux_position = pad1 & 0xFFFF;
     216:	ab08      	add	r3, sp, #32
     218:	701f      	strb	r7, [r3, #0]
	pin_conf.direction    = SYSTEM_PINMUX_PIN_DIR_OUTPUT_WITH_READBACK;
     21a:	2302      	movs	r3, #2
     21c:	aa08      	add	r2, sp, #32
     21e:	7053      	strb	r3, [r2, #1]
	system_pinmux_pin_set_config(pad1 >> 16, &pin_conf);
     220:	0c3f      	lsrs	r7, r7, #16
     222:	b2f8      	uxtb	r0, r7
     224:	0011      	movs	r1, r2
     226:	4b77      	ldr	r3, [pc, #476]	; (404 <i2c_master_init+0x2b8>)
     228:	4798      	blx	r3
	module->unknown_bus_state_timeout = config->unknown_bus_state_timeout;
     22a:	8aa3      	ldrh	r3, [r4, #20]
     22c:	80f3      	strh	r3, [r6, #6]
	module->buffer_timeout = config->buffer_timeout;
     22e:	8ae3      	ldrh	r3, [r4, #22]
     230:	8133      	strh	r3, [r6, #8]
	if (config->run_in_standby || system_is_debugger_present()) {
     232:	7e23      	ldrb	r3, [r4, #24]
		tmp_ctrla = SERCOM_I2CM_CTRLA_RUNSTDBY;
     234:	2280      	movs	r2, #128	; 0x80
	if (config->run_in_standby || system_is_debugger_present()) {
     236:	2b00      	cmp	r3, #0
     238:	d104      	bne.n	244 <i2c_master_init+0xf8>
 * \retval false Debugger is not connected to the system
 *
 */
static inline bool system_is_debugger_present(void)
{
	return DSU->STATUSB.reg & DSU_STATUSB_DBGPRES;
     23a:	4b73      	ldr	r3, [pc, #460]	; (408 <i2c_master_init+0x2bc>)
     23c:	789b      	ldrb	r3, [r3, #2]
     23e:	079b      	lsls	r3, r3, #30
		tmp_ctrla = SERCOM_I2CM_CTRLA_RUNSTDBY;
     240:	0fdb      	lsrs	r3, r3, #31
     242:	01da      	lsls	r2, r3, #7
	tmp_ctrla |= config->transfer_speed;
     244:	68a1      	ldr	r1, [r4, #8]
     246:	6923      	ldr	r3, [r4, #16]
     248:	430b      	orrs	r3, r1
     24a:	4313      	orrs	r3, r2
	if (config->scl_low_timeout) {
     24c:	2224      	movs	r2, #36	; 0x24
     24e:	5ca2      	ldrb	r2, [r4, r2]
     250:	2a00      	cmp	r2, #0
     252:	d002      	beq.n	25a <i2c_master_init+0x10e>
		tmp_ctrla |= SERCOM_I2CM_CTRLA_LOWTOUTEN;
     254:	2280      	movs	r2, #128	; 0x80
     256:	05d2      	lsls	r2, r2, #23
     258:	4313      	orrs	r3, r2
		tmp_ctrla |= config->inactive_timeout;
     25a:	6aa2      	ldr	r2, [r4, #40]	; 0x28
     25c:	4313      	orrs	r3, r2
	if (config->scl_stretch_only_after_ack_bit || (config->transfer_speed == I2C_MASTER_SPEED_HIGH_SPEED)) {
     25e:	222c      	movs	r2, #44	; 0x2c
     260:	5ca2      	ldrb	r2, [r4, r2]
     262:	2a00      	cmp	r2, #0
     264:	d103      	bne.n	26e <i2c_master_init+0x122>
     266:	2280      	movs	r2, #128	; 0x80
     268:	0492      	lsls	r2, r2, #18
     26a:	4291      	cmp	r1, r2
     26c:	d102      	bne.n	274 <i2c_master_init+0x128>
		tmp_ctrla |= SERCOM_I2CM_CTRLA_SCLSM;
     26e:	2280      	movs	r2, #128	; 0x80
     270:	0512      	lsls	r2, r2, #20
     272:	4313      	orrs	r3, r2
	if (config->slave_scl_low_extend_timeout) {
     274:	222d      	movs	r2, #45	; 0x2d
     276:	5ca2      	ldrb	r2, [r4, r2]
     278:	2a00      	cmp	r2, #0
     27a:	d002      	beq.n	282 <i2c_master_init+0x136>
		tmp_ctrla |= SERCOM_I2CM_CTRLA_SEXTTOEN;
     27c:	2280      	movs	r2, #128	; 0x80
     27e:	0412      	lsls	r2, r2, #16
     280:	4313      	orrs	r3, r2
	if (config->master_scl_low_extend_timeout) {
     282:	222e      	movs	r2, #46	; 0x2e
     284:	5ca2      	ldrb	r2, [r4, r2]
     286:	2a00      	cmp	r2, #0
     288:	d002      	beq.n	290 <i2c_master_init+0x144>
		tmp_ctrla |= SERCOM_I2CM_CTRLA_MEXTTOEN;
     28a:	2280      	movs	r2, #128	; 0x80
     28c:	03d2      	lsls	r2, r2, #15
     28e:	4313      	orrs	r3, r2
	i2c_module->CTRLA.reg |= tmp_ctrla;
     290:	4642      	mov	r2, r8
     292:	6812      	ldr	r2, [r2, #0]
     294:	4313      	orrs	r3, r2
     296:	4642      	mov	r2, r8
     298:	6013      	str	r3, [r2, #0]
	i2c_module->CTRLB.reg = SERCOM_I2CM_CTRLB_SMEN;
     29a:	2380      	movs	r3, #128	; 0x80
     29c:	005b      	lsls	r3, r3, #1
     29e:	6053      	str	r3, [r2, #4]
	uint32_t fgclk       = system_gclk_chan_get_hz(SERCOM0_GCLK_ID_CORE + sercom_index);
     2a0:	4648      	mov	r0, r9
     2a2:	3014      	adds	r0, #20
     2a4:	b2c0      	uxtb	r0, r0
     2a6:	4b59      	ldr	r3, [pc, #356]	; (40c <i2c_master_init+0x2c0>)
     2a8:	4798      	blx	r3
     2aa:	9007      	str	r0, [sp, #28]
	uint32_t fscl        = 1000 * config->baud_rate;
     2ac:	23fa      	movs	r3, #250	; 0xfa
     2ae:	009b      	lsls	r3, r3, #2
     2b0:	6822      	ldr	r2, [r4, #0]
     2b2:	435a      	muls	r2, r3
     2b4:	4691      	mov	r9, r2
	uint32_t fscl_hs     = 1000 * config->baud_rate_high_speed;
     2b6:	6863      	ldr	r3, [r4, #4]
     2b8:	469a      	mov	sl, r3
	tmp_baud = (int32_t)(div_ceil(
     2ba:	4d55      	ldr	r5, [pc, #340]	; (410 <i2c_master_init+0x2c4>)
     2bc:	47a8      	blx	r5
     2be:	9000      	str	r0, [sp, #0]
     2c0:	9101      	str	r1, [sp, #4]
     2c2:	464b      	mov	r3, r9
     2c4:	0058      	lsls	r0, r3, #1
     2c6:	47a8      	blx	r5
     2c8:	9002      	str	r0, [sp, #8]
     2ca:	9103      	str	r1, [sp, #12]
     2cc:	8e20      	ldrh	r0, [r4, #48]	; 0x30
     2ce:	47a8      	blx	r5
     2d0:	9004      	str	r0, [sp, #16]
     2d2:	9105      	str	r1, [sp, #20]
     2d4:	4f4f      	ldr	r7, [pc, #316]	; (414 <i2c_master_init+0x2c8>)
     2d6:	4a50      	ldr	r2, [pc, #320]	; (418 <i2c_master_init+0x2cc>)
     2d8:	4b50      	ldr	r3, [pc, #320]	; (41c <i2c_master_init+0x2d0>)
     2da:	9800      	ldr	r0, [sp, #0]
     2dc:	9901      	ldr	r1, [sp, #4]
     2de:	47b8      	blx	r7
     2e0:	0002      	movs	r2, r0
     2e2:	000b      	movs	r3, r1
     2e4:	9804      	ldr	r0, [sp, #16]
     2e6:	9905      	ldr	r1, [sp, #20]
     2e8:	47b8      	blx	r7
     2ea:	4e4d      	ldr	r6, [pc, #308]	; (420 <i2c_master_init+0x2d4>)
     2ec:	2200      	movs	r2, #0
     2ee:	4b4d      	ldr	r3, [pc, #308]	; (424 <i2c_master_init+0x2d8>)
     2f0:	47b0      	blx	r6
     2f2:	9004      	str	r0, [sp, #16]
     2f4:	9105      	str	r1, [sp, #20]
     2f6:	4648      	mov	r0, r9
     2f8:	47a8      	blx	r5
     2fa:	0002      	movs	r2, r0
     2fc:	000b      	movs	r3, r1
     2fe:	9804      	ldr	r0, [sp, #16]
     300:	9905      	ldr	r1, [sp, #20]
     302:	47b8      	blx	r7
     304:	0002      	movs	r2, r0
     306:	000b      	movs	r3, r1
     308:	4d47      	ldr	r5, [pc, #284]	; (428 <i2c_master_init+0x2dc>)
     30a:	9800      	ldr	r0, [sp, #0]
     30c:	9901      	ldr	r1, [sp, #4]
     30e:	47a8      	blx	r5
     310:	9a02      	ldr	r2, [sp, #8]
     312:	9b03      	ldr	r3, [sp, #12]
     314:	47b0      	blx	r6
     316:	2200      	movs	r2, #0
     318:	4b44      	ldr	r3, [pc, #272]	; (42c <i2c_master_init+0x2e0>)
     31a:	47a8      	blx	r5
     31c:	9a02      	ldr	r2, [sp, #8]
     31e:	9b03      	ldr	r3, [sp, #12]
     320:	4d43      	ldr	r5, [pc, #268]	; (430 <i2c_master_init+0x2e4>)
     322:	47a8      	blx	r5
     324:	4b43      	ldr	r3, [pc, #268]	; (434 <i2c_master_init+0x2e8>)
     326:	4798      	blx	r3
     328:	0005      	movs	r5, r0
	if (config->transfer_speed == I2C_MASTER_SPEED_HIGH_SPEED) {
     32a:	2380      	movs	r3, #128	; 0x80
     32c:	049b      	lsls	r3, r3, #18
     32e:	68a2      	ldr	r2, [r4, #8]
     330:	429a      	cmp	r2, r3
     332:	d01e      	beq.n	372 <i2c_master_init+0x226>
	if (tmp_baud > 255 || tmp_baud < 0 || tmp_baud_hs > 255 || tmp_baud_hs < 0) {
     334:	0003      	movs	r3, r0
     336:	2040      	movs	r0, #64	; 0x40
     338:	2dff      	cmp	r5, #255	; 0xff
     33a:	d900      	bls.n	33e <i2c_master_init+0x1f2>
     33c:	e72d      	b.n	19a <i2c_master_init+0x4e>
	int32_t tmp_baudlow_hs = 0;
     33e:	2400      	movs	r4, #0
	int32_t tmp_baud_hs = 0;
     340:	2000      	movs	r0, #0
		i2c_module->BAUD.reg = SERCOM_I2CM_BAUD_BAUD(tmp_baud) |
     342:	25ff      	movs	r5, #255	; 0xff
     344:	401d      	ands	r5, r3
			SERCOM_I2CM_BAUD_HSBAUD(tmp_baud_hs) | SERCOM_I2CM_BAUD_HSBAUDLOW(tmp_baudlow_hs);
     346:	0624      	lsls	r4, r4, #24
     348:	4325      	orrs	r5, r4
     34a:	0400      	lsls	r0, r0, #16
     34c:	23ff      	movs	r3, #255	; 0xff
     34e:	041b      	lsls	r3, r3, #16
     350:	4018      	ands	r0, r3
     352:	4305      	orrs	r5, r0
		i2c_module->BAUD.reg = SERCOM_I2CM_BAUD_BAUD(tmp_baud) |
     354:	4643      	mov	r3, r8
     356:	60dd      	str	r5, [r3, #12]
	enum status_code tmp_status_code = STATUS_OK;
     358:	2000      	movs	r0, #0
     35a:	e71e      	b.n	19a <i2c_master_init+0x4e>
		pad0 = _sercom_get_default_pad(sercom_hw, 0);
     35c:	2100      	movs	r1, #0
     35e:	4640      	mov	r0, r8
     360:	4b35      	ldr	r3, [pc, #212]	; (438 <i2c_master_init+0x2ec>)
     362:	4798      	blx	r3
     364:	e74a      	b.n	1fc <i2c_master_init+0xb0>
		pad1 = _sercom_get_default_pad(sercom_hw, 1);
     366:	2101      	movs	r1, #1
     368:	4640      	mov	r0, r8
     36a:	4b33      	ldr	r3, [pc, #204]	; (438 <i2c_master_init+0x2ec>)
     36c:	4798      	blx	r3
     36e:	0007      	movs	r7, r0
     370:	e751      	b.n	216 <i2c_master_init+0xca>
	uint32_t fscl_hs     = 1000 * config->baud_rate_high_speed;
     372:	26fa      	movs	r6, #250	; 0xfa
     374:	00b6      	lsls	r6, r6, #2
     376:	4653      	mov	r3, sl
     378:	435e      	muls	r6, r3
		tmp_baudlow_hs = (int32_t)((fgclk * 2.0) / (3.0 * fscl_hs) - 1);
     37a:	9800      	ldr	r0, [sp, #0]
     37c:	9901      	ldr	r1, [sp, #4]
     37e:	0002      	movs	r2, r0
     380:	000b      	movs	r3, r1
     382:	4c27      	ldr	r4, [pc, #156]	; (420 <i2c_master_init+0x2d4>)
     384:	47a0      	blx	r4
     386:	9000      	str	r0, [sp, #0]
     388:	9101      	str	r1, [sp, #4]
     38a:	0030      	movs	r0, r6
     38c:	4b20      	ldr	r3, [pc, #128]	; (410 <i2c_master_init+0x2c4>)
     38e:	4798      	blx	r3
     390:	2200      	movs	r2, #0
     392:	4b2a      	ldr	r3, [pc, #168]	; (43c <i2c_master_init+0x2f0>)
     394:	47b8      	blx	r7
     396:	0002      	movs	r2, r0
     398:	000b      	movs	r3, r1
     39a:	9800      	ldr	r0, [sp, #0]
     39c:	9901      	ldr	r1, [sp, #4]
     39e:	4c24      	ldr	r4, [pc, #144]	; (430 <i2c_master_init+0x2e4>)
     3a0:	47a0      	blx	r4
     3a2:	2200      	movs	r2, #0
     3a4:	4b21      	ldr	r3, [pc, #132]	; (42c <i2c_master_init+0x2e0>)
     3a6:	4c20      	ldr	r4, [pc, #128]	; (428 <i2c_master_init+0x2dc>)
     3a8:	47a0      	blx	r4
     3aa:	4b22      	ldr	r3, [pc, #136]	; (434 <i2c_master_init+0x2e8>)
     3ac:	4798      	blx	r3
     3ae:	1e04      	subs	r4, r0, #0
		if (tmp_baudlow_hs) {
     3b0:	d00c      	beq.n	3cc <i2c_master_init+0x280>
			tmp_baud_hs = (int32_t)(fgclk / fscl_hs) - 2 - tmp_baudlow_hs;
     3b2:	0031      	movs	r1, r6
     3b4:	9807      	ldr	r0, [sp, #28]
     3b6:	4b22      	ldr	r3, [pc, #136]	; (440 <i2c_master_init+0x2f4>)
     3b8:	4798      	blx	r3
     3ba:	3802      	subs	r0, #2
     3bc:	1b00      	subs	r0, r0, r4
	if (tmp_baud > 255 || tmp_baud < 0 || tmp_baud_hs > 255 || tmp_baud_hs < 0) {
     3be:	002b      	movs	r3, r5
     3c0:	2dff      	cmp	r5, #255	; 0xff
     3c2:	d80c      	bhi.n	3de <i2c_master_init+0x292>
     3c4:	28ff      	cmp	r0, #255	; 0xff
     3c6:	d9bc      	bls.n	342 <i2c_master_init+0x1f6>
     3c8:	2040      	movs	r0, #64	; 0x40
     3ca:	e6e6      	b.n	19a <i2c_master_init+0x4e>
			tmp_baud_hs = (int32_t)(div_ceil(fgclk, 2 * fscl_hs)) - 1;
     3cc:	0071      	lsls	r1, r6, #1
     3ce:	1e48      	subs	r0, r1, #1
     3d0:	9b07      	ldr	r3, [sp, #28]
     3d2:	469c      	mov	ip, r3
     3d4:	4460      	add	r0, ip
     3d6:	4b1a      	ldr	r3, [pc, #104]	; (440 <i2c_master_init+0x2f4>)
     3d8:	4798      	blx	r3
     3da:	3801      	subs	r0, #1
     3dc:	e7ef      	b.n	3be <i2c_master_init+0x272>
	if (tmp_baud > 255 || tmp_baud < 0 || tmp_baud_hs > 255 || tmp_baud_hs < 0) {
     3de:	2040      	movs	r0, #64	; 0x40
     3e0:	e6db      	b.n	19a <i2c_master_init+0x4e>
     3e2:	46c0      	nop			; (mov r8, r8)
     3e4:	00000f2d 	.word	0x00000f2d
     3e8:	40000400 	.word	0x40000400
     3ec:	00001c49 	.word	0x00001c49
     3f0:	00001bbd 	.word	0x00001bbd
     3f4:	00000d69 	.word	0x00000d69
     3f8:	00000695 	.word	0x00000695
     3fc:	00000f69 	.word	0x00000f69
     400:	2000071c 	.word	0x2000071c
     404:	00001d41 	.word	0x00001d41
     408:	41002000 	.word	0x41002000
     40c:	00001c65 	.word	0x00001c65
     410:	00003c09 	.word	0x00003c09
     414:	00003075 	.word	0x00003075
     418:	e826d695 	.word	0xe826d695
     41c:	3e112e0b 	.word	0x3e112e0b
     420:	000023ed 	.word	0x000023ed
     424:	40240000 	.word	0x40240000
     428:	00003575 	.word	0x00003575
     42c:	3ff00000 	.word	0x3ff00000
     430:	00002a0d 	.word	0x00002a0d
     434:	00003ba1 	.word	0x00003ba1
     438:	00000db5 	.word	0x00000db5
     43c:	40080000 	.word	0x40080000
     440:	000020c1 	.word	0x000020c1

00000444 <_i2c_master_address_response>:
	SercomI2cm *const i2c_module = &(module->hw->I2CM);
     444:	6803      	ldr	r3, [r0, #0]
	if (i2c_module->INTFLAG.reg & SERCOM_I2CM_INTFLAG_SB) {
     446:	7e1a      	ldrb	r2, [r3, #24]
     448:	0792      	lsls	r2, r2, #30
     44a:	d507      	bpl.n	45c <_i2c_master_address_response+0x18>
		i2c_module->INTFLAG.reg = SERCOM_I2CM_INTFLAG_SB;
     44c:	2202      	movs	r2, #2
     44e:	761a      	strb	r2, [r3, #24]
		if (i2c_module->STATUS.reg & SERCOM_I2CM_STATUS_ARBLOST) {
     450:	8b5b      	ldrh	r3, [r3, #26]
     452:	079b      	lsls	r3, r3, #30
			return STATUS_ERR_PACKET_COLLISION;
     454:	2041      	movs	r0, #65	; 0x41
	return STATUS_OK;
     456:	17db      	asrs	r3, r3, #31
     458:	4018      	ands	r0, r3
}
     45a:	4770      	bx	lr
	} else if (i2c_module->STATUS.reg & SERCOM_I2CM_STATUS_RXNACK) {
     45c:	8b5a      	ldrh	r2, [r3, #26]
     45e:	0752      	lsls	r2, r2, #29
     460:	d506      	bpl.n	470 <_i2c_master_address_response+0x2c>
		i2c_module->CTRLB.reg |= SERCOM_I2CM_CTRLB_CMD(3);
     462:	6859      	ldr	r1, [r3, #4]
     464:	22c0      	movs	r2, #192	; 0xc0
     466:	0292      	lsls	r2, r2, #10
     468:	430a      	orrs	r2, r1
     46a:	605a      	str	r2, [r3, #4]
		return STATUS_ERR_BAD_ADDRESS;
     46c:	2018      	movs	r0, #24
     46e:	e7f4      	b.n	45a <_i2c_master_address_response+0x16>
	return STATUS_OK;
     470:	2000      	movs	r0, #0
     472:	e7f2      	b.n	45a <_i2c_master_address_response+0x16>

00000474 <_i2c_master_wait_for_bus>:
{
     474:	b530      	push	{r4, r5, lr}
	SercomI2cm *const i2c_module = &(module->hw->I2CM);
     476:	6802      	ldr	r2, [r0, #0]
	uint16_t timeout_counter = 0;
     478:	2300      	movs	r3, #0
	while (!(i2c_module->INTFLAG.reg & SERCOM_I2CM_INTFLAG_MB) &&
     47a:	2401      	movs	r4, #1
     47c:	2502      	movs	r5, #2
     47e:	7e11      	ldrb	r1, [r2, #24]
     480:	4221      	tst	r1, r4
     482:	d10b      	bne.n	49c <_i2c_master_wait_for_bus+0x28>
			!(i2c_module->INTFLAG.reg & SERCOM_I2CM_INTFLAG_SB)) {
     484:	7e11      	ldrb	r1, [r2, #24]
	while (!(i2c_module->INTFLAG.reg & SERCOM_I2CM_INTFLAG_MB) &&
     486:	4229      	tst	r1, r5
     488:	d106      	bne.n	498 <_i2c_master_wait_for_bus+0x24>
		if (++timeout_counter >= module->buffer_timeout) {
     48a:	3301      	adds	r3, #1
     48c:	b29b      	uxth	r3, r3
     48e:	8901      	ldrh	r1, [r0, #8]
     490:	4299      	cmp	r1, r3
     492:	d8f4      	bhi.n	47e <_i2c_master_wait_for_bus+0xa>
			return STATUS_ERR_TIMEOUT;
     494:	2012      	movs	r0, #18
     496:	e002      	b.n	49e <_i2c_master_wait_for_bus+0x2a>
	return STATUS_OK;
     498:	2000      	movs	r0, #0
     49a:	e000      	b.n	49e <_i2c_master_wait_for_bus+0x2a>
     49c:	2000      	movs	r0, #0
}
     49e:	bd30      	pop	{r4, r5, pc}

000004a0 <_i2c_master_send_hs_master_code>:
{
     4a0:	b510      	push	{r4, lr}
	SercomI2cm *const i2c_module = &(module->hw->I2CM);
     4a2:	6804      	ldr	r4, [r0, #0]
	i2c_module->CTRLB.reg |= SERCOM_I2CM_CTRLB_ACKACT;
     4a4:	6862      	ldr	r2, [r4, #4]
     4a6:	2380      	movs	r3, #128	; 0x80
     4a8:	02db      	lsls	r3, r3, #11
     4aa:	4313      	orrs	r3, r2
     4ac:	6063      	str	r3, [r4, #4]
	i2c_module->ADDR.reg = hs_master_code;
     4ae:	6261      	str	r1, [r4, #36]	; 0x24
	tmp_status = _i2c_master_wait_for_bus(module);
     4b0:	4b02      	ldr	r3, [pc, #8]	; (4bc <_i2c_master_send_hs_master_code+0x1c>)
     4b2:	4798      	blx	r3
	i2c_module->INTFLAG.reg = SERCOM_I2CM_INTENCLR_MB;
     4b4:	2301      	movs	r3, #1
     4b6:	7623      	strb	r3, [r4, #24]
}
     4b8:	bd10      	pop	{r4, pc}
     4ba:	46c0      	nop			; (mov r8, r8)
     4bc:	00000475 	.word	0x00000475

000004c0 <_i2c_master_wait_for_sync>:
{
	/* Sanity check */
	Assert(module);
	Assert(module->hw);

	SercomI2cm *const i2c_hw = &(module->hw->I2CM);
     4c0:	6801      	ldr	r1, [r0, #0]

#if defined(FEATURE_SERCOM_SYNCBUSY_SCHEME_VERSION_1)
	return (i2c_hw->STATUS.reg & SERCOM_I2CM_STATUS_SYNCBUSY);
#elif defined(FEATURE_SERCOM_SYNCBUSY_SCHEME_VERSION_2)
	return (i2c_hw->SYNCBUSY.reg & SERCOM_I2CM_SYNCBUSY_MASK);
     4c2:	2207      	movs	r2, #7
     4c4:	69cb      	ldr	r3, [r1, #28]
		const struct i2c_master_module *const module)
{
	/* Sanity check */
	Assert(module);

	while (i2c_master_is_syncing(module)) {
     4c6:	421a      	tst	r2, r3
     4c8:	d1fc      	bne.n	4c4 <_i2c_master_wait_for_sync+0x4>
		/* Wait for I2C module to sync. */
	}
}
     4ca:	4770      	bx	lr

000004cc <_i2c_master_read>:
 *
 * \param[in,out] module  Pointer to software module structure
 */
static void _i2c_master_read(
		struct i2c_master_module *const module)
{
     4cc:	b570      	push	{r4, r5, r6, lr}
     4ce:	0004      	movs	r4, r0
	/* Sanity check arguments. */
	Assert(module);
	Assert(module->hw);

	SercomI2cm *const i2c_module = &(module->hw->I2CM);
     4d0:	6806      	ldr	r6, [r0, #0]
	bool sclsm_flag = i2c_module->CTRLA.bit.SCLSM;
     4d2:	6832      	ldr	r2, [r6, #0]

	/* Find index to save next value in buffer */
	uint16_t buffer_index = module->buffer_length;
     4d4:	8b45      	ldrh	r5, [r0, #26]
	buffer_index -= module->buffer_remaining;
     4d6:	8b83      	ldrh	r3, [r0, #28]
     4d8:	1aed      	subs	r5, r5, r3
     4da:	b2ad      	uxth	r5, r5

	module->buffer_remaining--;
     4dc:	8b83      	ldrh	r3, [r0, #28]
     4de:	3b01      	subs	r3, #1
     4e0:	b29b      	uxth	r3, r3
     4e2:	8383      	strh	r3, [r0, #28]

	if (sclsm_flag) {
     4e4:	0113      	lsls	r3, r2, #4
     4e6:	d51d      	bpl.n	524 <_i2c_master_read+0x58>
		if (module->send_nack && module->buffer_remaining == 1) {
     4e8:	7ac3      	ldrb	r3, [r0, #11]
     4ea:	2b00      	cmp	r3, #0
     4ec:	d003      	beq.n	4f6 <_i2c_master_read+0x2a>
     4ee:	8b83      	ldrh	r3, [r0, #28]
     4f0:	b29b      	uxth	r3, r3
     4f2:	2b01      	cmp	r3, #1
     4f4:	d010      	beq.n	518 <_i2c_master_read+0x4c>
			/* Set action to NACK. */
			i2c_module->CTRLB.reg |= SERCOM_I2CM_CTRLB_ACKACT;
		}
	}

	if (module->buffer_remaining == 0) {
     4f6:	8ba3      	ldrh	r3, [r4, #28]
     4f8:	b29b      	uxth	r3, r3
     4fa:	2b00      	cmp	r3, #0
     4fc:	d102      	bne.n	504 <_i2c_master_read+0x38>
		if (module->send_stop) {
     4fe:	7aa3      	ldrb	r3, [r4, #10]
     500:	2b00      	cmp	r3, #0
     502:	d11c      	bne.n	53e <_i2c_master_read+0x72>
			i2c_module->CTRLB.reg |= SERCOM_I2CM_CTRLB_CMD(3);
		}
	}
	
	/* Read byte from slave and put in buffer */
	_i2c_master_wait_for_sync(module);
     504:	0020      	movs	r0, r4
     506:	4b12      	ldr	r3, [pc, #72]	; (550 <_i2c_master_read+0x84>)
     508:	4798      	blx	r3
	module->buffer[buffer_index] = i2c_module->DATA.reg;
     50a:	6a23      	ldr	r3, [r4, #32]
     50c:	195d      	adds	r5, r3, r5
     50e:	2328      	movs	r3, #40	; 0x28
     510:	5cf3      	ldrb	r3, [r6, r3]
     512:	b2db      	uxtb	r3, r3
     514:	702b      	strb	r3, [r5, #0]
}
     516:	bd70      	pop	{r4, r5, r6, pc}
			i2c_module->CTRLB.reg |= SERCOM_I2CM_CTRLB_ACKACT;
     518:	6872      	ldr	r2, [r6, #4]
     51a:	2380      	movs	r3, #128	; 0x80
     51c:	02db      	lsls	r3, r3, #11
     51e:	4313      	orrs	r3, r2
     520:	6073      	str	r3, [r6, #4]
     522:	e7e8      	b.n	4f6 <_i2c_master_read+0x2a>
		if (module->send_nack && module->buffer_remaining == 0) {
     524:	7ac3      	ldrb	r3, [r0, #11]
     526:	2b00      	cmp	r3, #0
     528:	d0e5      	beq.n	4f6 <_i2c_master_read+0x2a>
     52a:	8b83      	ldrh	r3, [r0, #28]
     52c:	b29b      	uxth	r3, r3
     52e:	2b00      	cmp	r3, #0
     530:	d1e1      	bne.n	4f6 <_i2c_master_read+0x2a>
			i2c_module->CTRLB.reg |= SERCOM_I2CM_CTRLB_ACKACT;
     532:	6872      	ldr	r2, [r6, #4]
     534:	2380      	movs	r3, #128	; 0x80
     536:	02db      	lsls	r3, r3, #11
     538:	4313      	orrs	r3, r2
     53a:	6073      	str	r3, [r6, #4]
     53c:	e7db      	b.n	4f6 <_i2c_master_read+0x2a>
			_i2c_master_wait_for_sync(module);
     53e:	0020      	movs	r0, r4
     540:	4b03      	ldr	r3, [pc, #12]	; (550 <_i2c_master_read+0x84>)
     542:	4798      	blx	r3
			i2c_module->CTRLB.reg |= SERCOM_I2CM_CTRLB_CMD(3);
     544:	6872      	ldr	r2, [r6, #4]
     546:	23c0      	movs	r3, #192	; 0xc0
     548:	029b      	lsls	r3, r3, #10
     54a:	4313      	orrs	r3, r2
     54c:	6073      	str	r3, [r6, #4]
     54e:	e7d9      	b.n	504 <_i2c_master_read+0x38>
     550:	000004c1 	.word	0x000004c1

00000554 <_i2c_master_write>:
 * Write next data. Used by interrupt handler to send next data byte to slave.
 *
 * \param[in,out] module  Pointer to software module structure
 */
static void _i2c_master_write(struct i2c_master_module *const module)
{
     554:	b570      	push	{r4, r5, r6, lr}
     556:	0004      	movs	r4, r0
	/* Sanity check arguments. */
	Assert(module);
	Assert(module->hw);

	SercomI2cm *const i2c_module = &(module->hw->I2CM);
     558:	6805      	ldr	r5, [r0, #0]

	/* Check for ack from slave */
	if (i2c_module->STATUS.reg & SERCOM_I2CM_STATUS_RXNACK)
     55a:	8b6b      	ldrh	r3, [r5, #26]
     55c:	075b      	lsls	r3, r3, #29
     55e:	d503      	bpl.n	568 <_i2c_master_write+0x14>
	{
		/* Set status */
		module->status = STATUS_ERR_OVERFLOW;
     560:	221e      	movs	r2, #30
     562:	2325      	movs	r3, #37	; 0x25
     564:	54c2      	strb	r2, [r0, r3]
	module->buffer_remaining--;

	/* Write byte from buffer to slave */
	_i2c_master_wait_for_sync(module);
	i2c_module->DATA.reg = module->buffer[buffer_index];
}
     566:	bd70      	pop	{r4, r5, r6, pc}
	uint16_t buffer_index = module->buffer_length;
     568:	8b46      	ldrh	r6, [r0, #26]
	buffer_index -= module->buffer_remaining;
     56a:	8b83      	ldrh	r3, [r0, #28]
     56c:	1af6      	subs	r6, r6, r3
     56e:	b2b6      	uxth	r6, r6
	module->buffer_remaining--;
     570:	8b83      	ldrh	r3, [r0, #28]
     572:	3b01      	subs	r3, #1
     574:	b29b      	uxth	r3, r3
     576:	8383      	strh	r3, [r0, #28]
	_i2c_master_wait_for_sync(module);
     578:	4b04      	ldr	r3, [pc, #16]	; (58c <_i2c_master_write+0x38>)
     57a:	4798      	blx	r3
	i2c_module->DATA.reg = module->buffer[buffer_index];
     57c:	6a23      	ldr	r3, [r4, #32]
     57e:	199e      	adds	r6, r3, r6
     580:	7833      	ldrb	r3, [r6, #0]
     582:	b2db      	uxtb	r3, r3
     584:	2228      	movs	r2, #40	; 0x28
     586:	54ab      	strb	r3, [r5, r2]
     588:	e7ed      	b.n	566 <_i2c_master_write+0x12>
     58a:	46c0      	nop			; (mov r8, r8)
     58c:	000004c1 	.word	0x000004c1

00000590 <_i2c_master_read_packet>:
 * \retval STATUS_BUSY  If module is currently busy with another transfer
 */
static enum status_code _i2c_master_read_packet(
		struct i2c_master_module *const module,
		struct i2c_master_packet *const packet)
{
     590:	b5f8      	push	{r3, r4, r5, r6, r7, lr}
     592:	0005      	movs	r5, r0
     594:	000c      	movs	r4, r1
	/* Sanity check */
	Assert(module);
	Assert(module->hw);

	SercomI2cm *const i2c_module = &(module->hw->I2CM);
     596:	6806      	ldr	r6, [r0, #0]
	enum status_code tmp_status;

	/* Save packet to software module */
	module->buffer             = packet->data;
     598:	684b      	ldr	r3, [r1, #4]
     59a:	6203      	str	r3, [r0, #32]
	module->buffer_remaining   = packet->data_length;
     59c:	884b      	ldrh	r3, [r1, #2]
     59e:	8383      	strh	r3, [r0, #28]
	module->transfer_direction = I2C_TRANSFER_READ;
     5a0:	2201      	movs	r2, #1
     5a2:	2324      	movs	r3, #36	; 0x24
     5a4:	54c2      	strb	r2, [r0, r3]
	module->status             = STATUS_BUSY;
     5a6:	3204      	adds	r2, #4
     5a8:	3301      	adds	r3, #1
     5aa:	54c2      	strb	r2, [r0, r3]

	bool sclsm_flag = i2c_module->CTRLA.bit.SCLSM;
     5ac:	6837      	ldr	r7, [r6, #0]
     5ae:	013f      	lsls	r7, r7, #4
     5b0:	0fff      	lsrs	r7, r7, #31

	/* Switch to high speed mode */
	if (packet->high_speed) {
     5b2:	7a4b      	ldrb	r3, [r1, #9]
     5b4:	2b00      	cmp	r3, #0
     5b6:	d117      	bne.n	5e8 <_i2c_master_read_packet+0x58>
		_i2c_master_send_hs_master_code(module, packet->hs_master_code);
	}

	/* Set action to ACK or NACK. */
	if ((sclsm_flag) && (packet->data_length == 1)) {
     5b8:	2f00      	cmp	r7, #0
     5ba:	d002      	beq.n	5c2 <_i2c_master_read_packet+0x32>
     5bc:	8863      	ldrh	r3, [r4, #2]
     5be:	2b01      	cmp	r3, #1
     5c0:	d016      	beq.n	5f0 <_i2c_master_read_packet+0x60>
		i2c_module->CTRLB.reg |= SERCOM_I2CM_CTRLB_ACKACT;
	} else {
		i2c_module->CTRLB.reg &= ~SERCOM_I2CM_CTRLB_ACKACT;
     5c2:	6873      	ldr	r3, [r6, #4]
     5c4:	4a20      	ldr	r2, [pc, #128]	; (648 <_i2c_master_read_packet+0xb8>)
     5c6:	4013      	ands	r3, r2
     5c8:	6073      	str	r3, [r6, #4]
	}

	if (packet->ten_bit_address) {
     5ca:	7a23      	ldrb	r3, [r4, #8]
     5cc:	2b00      	cmp	r3, #0
     5ce:	d115      	bne.n	5fc <_i2c_master_read_packet+0x6c>
		} else {
			return tmp_status;
		}
	} else {
		/* Enable interrupts */
		i2c_module->INTENSET.reg =
     5d0:	2303      	movs	r3, #3
     5d2:	75b3      	strb	r3, [r6, #22]
			SERCOM_I2CM_INTENSET_MB | SERCOM_I2CM_INTENSET_SB;

		/* Set address and direction bit. Will send start command on bus */
		i2c_module->ADDR.reg = (packet->address << 1) | I2C_TRANSFER_READ |
     5d4:	8823      	ldrh	r3, [r4, #0]
     5d6:	005b      	lsls	r3, r3, #1
			(packet->high_speed << SERCOM_I2CM_ADDR_HS_Pos);
     5d8:	7a62      	ldrb	r2, [r4, #9]
     5da:	0392      	lsls	r2, r2, #14
		i2c_module->ADDR.reg = (packet->address << 1) | I2C_TRANSFER_READ |
     5dc:	4313      	orrs	r3, r2
     5de:	2201      	movs	r2, #1
     5e0:	4313      	orrs	r3, r2
     5e2:	6273      	str	r3, [r6, #36]	; 0x24
	}

	return STATUS_OK;
     5e4:	2000      	movs	r0, #0
}
     5e6:	bdf8      	pop	{r3, r4, r5, r6, r7, pc}
		_i2c_master_send_hs_master_code(module, packet->hs_master_code);
     5e8:	7a89      	ldrb	r1, [r1, #10]
     5ea:	4b18      	ldr	r3, [pc, #96]	; (64c <_i2c_master_read_packet+0xbc>)
     5ec:	4798      	blx	r3
     5ee:	e7e3      	b.n	5b8 <_i2c_master_read_packet+0x28>
		i2c_module->CTRLB.reg |= SERCOM_I2CM_CTRLB_ACKACT;
     5f0:	6872      	ldr	r2, [r6, #4]
     5f2:	2380      	movs	r3, #128	; 0x80
     5f4:	02db      	lsls	r3, r3, #11
     5f6:	4313      	orrs	r3, r2
     5f8:	6073      	str	r3, [r6, #4]
     5fa:	e7e6      	b.n	5ca <_i2c_master_read_packet+0x3a>
		i2c_module->ADDR.reg = (packet->address << 1) |
     5fc:	8823      	ldrh	r3, [r4, #0]
     5fe:	005b      	lsls	r3, r3, #1
			(packet->high_speed << SERCOM_I2CM_ADDR_HS_Pos) |
     600:	7a62      	ldrb	r2, [r4, #9]
     602:	0392      	lsls	r2, r2, #14
		i2c_module->ADDR.reg = (packet->address << 1) |
     604:	4313      	orrs	r3, r2
			(packet->high_speed << SERCOM_I2CM_ADDR_HS_Pos) |
     606:	2280      	movs	r2, #128	; 0x80
     608:	0212      	lsls	r2, r2, #8
     60a:	4313      	orrs	r3, r2
		i2c_module->ADDR.reg = (packet->address << 1) |
     60c:	6273      	str	r3, [r6, #36]	; 0x24
		tmp_status = _i2c_master_wait_for_bus(module);
     60e:	0028      	movs	r0, r5
     610:	4b0f      	ldr	r3, [pc, #60]	; (650 <_i2c_master_read_packet+0xc0>)
     612:	4798      	blx	r3
		i2c_module->CTRLB.reg &= ~SERCOM_I2CM_CTRLB_ACKACT;
     614:	6873      	ldr	r3, [r6, #4]
     616:	4a0c      	ldr	r2, [pc, #48]	; (648 <_i2c_master_read_packet+0xb8>)
     618:	4013      	ands	r3, r2
     61a:	6073      	str	r3, [r6, #4]
		if (tmp_status == STATUS_OK) {
     61c:	2800      	cmp	r0, #0
     61e:	d1e2      	bne.n	5e6 <_i2c_master_read_packet+0x56>
			tmp_status = _i2c_master_address_response(module);
     620:	0028      	movs	r0, r5
     622:	4b0c      	ldr	r3, [pc, #48]	; (654 <_i2c_master_read_packet+0xc4>)
     624:	4798      	blx	r3
		if (tmp_status == STATUS_OK) {
     626:	2800      	cmp	r0, #0
     628:	d1dd      	bne.n	5e6 <_i2c_master_read_packet+0x56>
			i2c_module->INTENSET.reg =
     62a:	2303      	movs	r3, #3
     62c:	75b3      	strb	r3, [r6, #22]
			i2c_module->ADDR.reg = (((packet->address >> 8) | 0x78) << 1) |
     62e:	8823      	ldrh	r3, [r4, #0]
     630:	0a1b      	lsrs	r3, r3, #8
     632:	2278      	movs	r2, #120	; 0x78
     634:	4313      	orrs	r3, r2
     636:	005b      	lsls	r3, r3, #1
				(packet->high_speed << SERCOM_I2CM_ADDR_HS_Pos) |
     638:	7a62      	ldrb	r2, [r4, #9]
     63a:	0392      	lsls	r2, r2, #14
     63c:	2101      	movs	r1, #1
     63e:	430a      	orrs	r2, r1
     640:	4313      	orrs	r3, r2
			i2c_module->ADDR.reg = (((packet->address >> 8) | 0x78) << 1) |
     642:	6273      	str	r3, [r6, #36]	; 0x24
     644:	e7cf      	b.n	5e6 <_i2c_master_read_packet+0x56>
     646:	46c0      	nop			; (mov r8, r8)
     648:	fffbffff 	.word	0xfffbffff
     64c:	000004a1 	.word	0x000004a1
     650:	00000475 	.word	0x00000475
     654:	00000445 	.word	0x00000445

00000658 <i2c_master_register_callback>:
	module->callbacks[callback_type] = callback;
     658:	1c93      	adds	r3, r2, #2
     65a:	009b      	lsls	r3, r3, #2
     65c:	18c3      	adds	r3, r0, r3
     65e:	6059      	str	r1, [r3, #4]
	module->registered_callback |= (1 << callback_type);
     660:	7e03      	ldrb	r3, [r0, #24]
     662:	2101      	movs	r1, #1
     664:	4091      	lsls	r1, r2
     666:	430b      	orrs	r3, r1
     668:	b2db      	uxtb	r3, r3
     66a:	7603      	strb	r3, [r0, #24]
}
     66c:	4770      	bx	lr
	...

00000670 <i2c_master_read_packet_job>:
 * \retval STATUS_BUSY  If module is currently busy with another transfer
 */
enum status_code i2c_master_read_packet_job(
		struct i2c_master_module *const module,
		struct i2c_master_packet *const packet)
{
     670:	b510      	push	{r4, lr}
	Assert(module);
	Assert(module->hw);
	Assert(packet);

	/* Check if the I2C module is busy with a job */
	if (module->buffer_remaining > 0) {
     672:	8b83      	ldrh	r3, [r0, #28]
     674:	b29b      	uxth	r3, r3
		return STATUS_BUSY;
     676:	2205      	movs	r2, #5
	if (module->buffer_remaining > 0) {
     678:	2b00      	cmp	r3, #0
     67a:	d001      	beq.n	680 <i2c_master_read_packet_job+0x10>
	/* Make sure we send STOP */
	module->send_stop = true;
	module->send_nack = true;
	/* Start reading */
	return _i2c_master_read_packet(module, packet);
}
     67c:	0010      	movs	r0, r2
     67e:	bd10      	pop	{r4, pc}
	module->send_stop = true;
     680:	3301      	adds	r3, #1
     682:	7283      	strb	r3, [r0, #10]
	module->send_nack = true;
     684:	72c3      	strb	r3, [r0, #11]
	return _i2c_master_read_packet(module, packet);
     686:	4b02      	ldr	r3, [pc, #8]	; (690 <i2c_master_read_packet_job+0x20>)
     688:	4798      	blx	r3
     68a:	0002      	movs	r2, r0
     68c:	e7f6      	b.n	67c <i2c_master_read_packet_job+0xc>
     68e:	46c0      	nop			; (mov r8, r8)
     690:	00000591 	.word	0x00000591

00000694 <_i2c_master_interrupt_handler>:
 *
 * \param[in] instance  SERCOM instance that triggered the interrupt
 */
void _i2c_master_interrupt_handler(
		uint8_t instance)
{
     694:	b570      	push	{r4, r5, r6, lr}
	/* Get software module for callback handling */
	struct i2c_master_module *module =
     696:	0080      	lsls	r0, r0, #2
     698:	4b75      	ldr	r3, [pc, #468]	; (870 <_i2c_master_interrupt_handler+0x1dc>)
     69a:	58c4      	ldr	r4, [r0, r3]
			(struct i2c_master_module*)_sercom_instances[instance];

	Assert(module);

	SercomI2cm *const i2c_module = &(module->hw->I2CM);
     69c:	6825      	ldr	r5, [r4, #0]
	bool sclsm_flag = i2c_module->CTRLA.bit.SCLSM;
     69e:	682b      	ldr	r3, [r5, #0]
     6a0:	011b      	lsls	r3, r3, #4
     6a2:	0fda      	lsrs	r2, r3, #31

	/* Combine callback registered and enabled masks */
	uint8_t callback_mask = module->enabled_callback;
     6a4:	7e63      	ldrb	r3, [r4, #25]
	callback_mask &= module->registered_callback;
     6a6:	7e26      	ldrb	r6, [r4, #24]
     6a8:	401e      	ands	r6, r3

	/* Check if the module should respond to address ack */
	if ((module->buffer_length <= 0) && (module->buffer_remaining > 0)) {
     6aa:	8b63      	ldrh	r3, [r4, #26]
     6ac:	b29b      	uxth	r3, r3
     6ae:	2b00      	cmp	r3, #0
     6b0:	d103      	bne.n	6ba <_i2c_master_interrupt_handler+0x26>
     6b2:	8ba3      	ldrh	r3, [r4, #28]
     6b4:	b29b      	uxth	r3, r3
     6b6:	2b00      	cmp	r3, #0
     6b8:	d123      	bne.n	702 <_i2c_master_interrupt_handler+0x6e>
		/* Call function for address response */
		_i2c_master_async_address_response(module);

	/* Check if buffer write is done */
	} else if ((module->buffer_length > 0) && (module->buffer_remaining <= 0) &&
     6ba:	8b63      	ldrh	r3, [r4, #26]
     6bc:	b29b      	uxth	r3, r3
     6be:	2b00      	cmp	r3, #0
     6c0:	d008      	beq.n	6d4 <_i2c_master_interrupt_handler+0x40>
     6c2:	8ba3      	ldrh	r3, [r4, #28]
     6c4:	b29b      	uxth	r3, r3
     6c6:	2b00      	cmp	r3, #0
     6c8:	d104      	bne.n	6d4 <_i2c_master_interrupt_handler+0x40>
			(module->status == STATUS_BUSY) &&
     6ca:	3325      	adds	r3, #37	; 0x25
     6cc:	5ce3      	ldrb	r3, [r4, r3]
	} else if ((module->buffer_length > 0) && (module->buffer_remaining <= 0) &&
     6ce:	2b05      	cmp	r3, #5
     6d0:	d100      	bne.n	6d4 <_i2c_master_interrupt_handler+0x40>
     6d2:	e06d      	b.n	7b0 <_i2c_master_interrupt_handler+0x11c>
		if (callback_mask & (1 << I2C_MASTER_CALLBACK_WRITE_COMPLETE)) {
			module->callbacks[I2C_MASTER_CALLBACK_WRITE_COMPLETE](module);
		}

	/* Continue buffer write/read */
	} else if ((module->buffer_length > 0) && (module->buffer_remaining > 0)){
     6d4:	8b63      	ldrh	r3, [r4, #26]
     6d6:	b29b      	uxth	r3, r3
     6d8:	2b00      	cmp	r3, #0
     6da:	d024      	beq.n	726 <_i2c_master_interrupt_handler+0x92>
     6dc:	8ba3      	ldrh	r3, [r4, #28]
     6de:	b29b      	uxth	r3, r3
     6e0:	2b00      	cmp	r3, #0
     6e2:	d020      	beq.n	726 <_i2c_master_interrupt_handler+0x92>
		/* Check that bus ownership is not lost */
		if ((!(i2c_module->STATUS.reg & SERCOM_I2CM_STATUS_BUSSTATE(2))) &&
     6e4:	8b6b      	ldrh	r3, [r5, #26]
     6e6:	069b      	lsls	r3, r3, #26
     6e8:	d500      	bpl.n	6ec <_i2c_master_interrupt_handler+0x58>
     6ea:	e081      	b.n	7f0 <_i2c_master_interrupt_handler+0x15c>
     6ec:	2a00      	cmp	r2, #0
     6ee:	d004      	beq.n	6fa <_i2c_master_interrupt_handler+0x66>
				(!(sclsm_flag && (module->buffer_remaining == 1))))	{
     6f0:	8ba3      	ldrh	r3, [r4, #28]
     6f2:	b29b      	uxth	r3, r3
     6f4:	2b01      	cmp	r3, #1
     6f6:	d100      	bne.n	6fa <_i2c_master_interrupt_handler+0x66>
     6f8:	e07a      	b.n	7f0 <_i2c_master_interrupt_handler+0x15c>
			module->status = STATUS_ERR_PACKET_COLLISION;
     6fa:	2241      	movs	r2, #65	; 0x41
     6fc:	2325      	movs	r3, #37	; 0x25
     6fe:	54e2      	strb	r2, [r4, r3]
     700:	e011      	b.n	726 <_i2c_master_interrupt_handler+0x92>
	if (i2c_module->INTFLAG.reg & SERCOM_I2CM_INTFLAG_MB)
     702:	7e2b      	ldrb	r3, [r5, #24]
     704:	07db      	lsls	r3, r3, #31
     706:	d507      	bpl.n	718 <_i2c_master_interrupt_handler+0x84>
		i2c_module->INTFLAG.reg = SERCOM_I2CM_INTENCLR_MB;
     708:	2301      	movs	r3, #1
     70a:	762b      	strb	r3, [r5, #24]
		if (i2c_module->STATUS.reg & SERCOM_I2CM_STATUS_ARBLOST) {
     70c:	8b6b      	ldrh	r3, [r5, #26]
     70e:	079b      	lsls	r3, r3, #30
     710:	d52e      	bpl.n	770 <_i2c_master_interrupt_handler+0xdc>
			module->status = STATUS_ERR_PACKET_COLLISION;
     712:	2241      	movs	r2, #65	; 0x41
     714:	2325      	movs	r3, #37	; 0x25
     716:	54e2      	strb	r2, [r4, r3]
	module->buffer_length = module->buffer_remaining;
     718:	8ba3      	ldrh	r3, [r4, #28]
     71a:	b29b      	uxth	r3, r3
     71c:	8363      	strh	r3, [r4, #26]
	if (module->status == STATUS_BUSY) {
     71e:	2325      	movs	r3, #37	; 0x25
     720:	5ce3      	ldrb	r3, [r4, r3]
     722:	2b05      	cmp	r3, #5
     724:	d038      	beq.n	798 <_i2c_master_interrupt_handler+0x104>
			_i2c_master_read(module);
		}
	}

	/* Check if read buffer transfer is complete */
	if ((module->buffer_length > 0) && (module->buffer_remaining <= 0) &&
     726:	8b63      	ldrh	r3, [r4, #26]
     728:	b29b      	uxth	r3, r3
     72a:	2b00      	cmp	r3, #0
     72c:	d007      	beq.n	73e <_i2c_master_interrupt_handler+0xaa>
     72e:	8ba3      	ldrh	r3, [r4, #28]
     730:	b29b      	uxth	r3, r3
     732:	2b00      	cmp	r3, #0
     734:	d103      	bne.n	73e <_i2c_master_interrupt_handler+0xaa>
			(module->status == STATUS_BUSY) &&
     736:	3325      	adds	r3, #37	; 0x25
     738:	5ce3      	ldrb	r3, [r4, r3]
	if ((module->buffer_length > 0) && (module->buffer_remaining <= 0) &&
     73a:	2b05      	cmp	r3, #5
     73c:	d064      	beq.n	808 <_i2c_master_interrupt_handler+0x174>
			module->callbacks[I2C_MASTER_CALLBACK_WRITE_COMPLETE](module);
		}
	}

	/* Check for error */
	if ((module->status != STATUS_BUSY) && (module->status != STATUS_OK)) {
     73e:	2325      	movs	r3, #37	; 0x25
     740:	5ce3      	ldrb	r3, [r4, r3]
     742:	2b05      	cmp	r3, #5
     744:	d013      	beq.n	76e <_i2c_master_interrupt_handler+0xda>
     746:	2325      	movs	r3, #37	; 0x25
     748:	5ce3      	ldrb	r3, [r4, r3]
     74a:	2b00      	cmp	r3, #0
     74c:	d00f      	beq.n	76e <_i2c_master_interrupt_handler+0xda>
		/* Stop packet operation */
		i2c_module->INTENCLR.reg = SERCOM_I2CM_INTENCLR_MB |
     74e:	2303      	movs	r3, #3
     750:	752b      	strb	r3, [r5, #20]
				SERCOM_I2CM_INTENCLR_SB;

		module->buffer_length = 0;
     752:	2300      	movs	r3, #0
     754:	8363      	strh	r3, [r4, #26]
		module->buffer_remaining = 0;
     756:	83a3      	strh	r3, [r4, #28]

		/* Send nack and stop command unless arbitration is lost */
		if ((module->status != STATUS_ERR_PACKET_COLLISION) &&
     758:	3325      	adds	r3, #37	; 0x25
     75a:	5ce3      	ldrb	r3, [r4, r3]
     75c:	2b41      	cmp	r3, #65	; 0x41
     75e:	d003      	beq.n	768 <_i2c_master_interrupt_handler+0xd4>
     760:	7aa3      	ldrb	r3, [r4, #10]
     762:	2b00      	cmp	r3, #0
     764:	d000      	beq.n	768 <_i2c_master_interrupt_handler+0xd4>
     766:	e075      	b.n	854 <_i2c_master_interrupt_handler+0x1c0>
			i2c_module->CTRLB.reg |= SERCOM_I2CM_CTRLB_ACKACT |
					SERCOM_I2CM_CTRLB_CMD(3);
		}

		/* Call error callback if enabled and registered */
		if (callback_mask & (1 << I2C_MASTER_CALLBACK_ERROR)) {
     768:	0773      	lsls	r3, r6, #29
     76a:	d500      	bpl.n	76e <_i2c_master_interrupt_handler+0xda>
     76c:	e07b      	b.n	866 <_i2c_master_interrupt_handler+0x1d2>
			module->callbacks[I2C_MASTER_CALLBACK_ERROR](module);
		}
	}
}
     76e:	bd70      	pop	{r4, r5, r6, pc}
		else if (i2c_module->STATUS.reg & SERCOM_I2CM_STATUS_RXNACK) {
     770:	8b6b      	ldrh	r3, [r5, #26]
     772:	075b      	lsls	r3, r3, #29
     774:	d5d0      	bpl.n	718 <_i2c_master_interrupt_handler+0x84>
			module->status           = STATUS_ERR_BAD_ADDRESS;
     776:	2218      	movs	r2, #24
     778:	2325      	movs	r3, #37	; 0x25
     77a:	54e2      	strb	r2, [r4, r3]
			module->buffer_remaining = 0;
     77c:	2300      	movs	r3, #0
     77e:	83a3      	strh	r3, [r4, #28]
			if (module->send_stop) {
     780:	7aa3      	ldrb	r3, [r4, #10]
     782:	2b00      	cmp	r3, #0
     784:	d0c8      	beq.n	718 <_i2c_master_interrupt_handler+0x84>
				_i2c_master_wait_for_sync(module);
     786:	0020      	movs	r0, r4
     788:	4b3a      	ldr	r3, [pc, #232]	; (874 <_i2c_master_interrupt_handler+0x1e0>)
     78a:	4798      	blx	r3
				i2c_module->CTRLB.reg |= SERCOM_I2CM_CTRLB_CMD(3);
     78c:	686a      	ldr	r2, [r5, #4]
     78e:	23c0      	movs	r3, #192	; 0xc0
     790:	029b      	lsls	r3, r3, #10
     792:	4313      	orrs	r3, r2
     794:	606b      	str	r3, [r5, #4]
     796:	e7bf      	b.n	718 <_i2c_master_interrupt_handler+0x84>
		if (module->transfer_direction == I2C_TRANSFER_WRITE) {
     798:	331f      	adds	r3, #31
     79a:	5ce3      	ldrb	r3, [r4, r3]
     79c:	2b00      	cmp	r3, #0
     79e:	d003      	beq.n	7a8 <_i2c_master_interrupt_handler+0x114>
			_i2c_master_read(module);
     7a0:	0020      	movs	r0, r4
     7a2:	4b35      	ldr	r3, [pc, #212]	; (878 <_i2c_master_interrupt_handler+0x1e4>)
     7a4:	4798      	blx	r3
     7a6:	e7be      	b.n	726 <_i2c_master_interrupt_handler+0x92>
			_i2c_master_write(module);
     7a8:	0020      	movs	r0, r4
     7aa:	4b34      	ldr	r3, [pc, #208]	; (87c <_i2c_master_interrupt_handler+0x1e8>)
     7ac:	4798      	blx	r3
     7ae:	e7ba      	b.n	726 <_i2c_master_interrupt_handler+0x92>
			(module->transfer_direction == I2C_TRANSFER_WRITE)) {
     7b0:	331f      	adds	r3, #31
     7b2:	5ce3      	ldrb	r3, [r4, r3]
			(module->status == STATUS_BUSY) &&
     7b4:	2b00      	cmp	r3, #0
     7b6:	d000      	beq.n	7ba <_i2c_master_interrupt_handler+0x126>
     7b8:	e78c      	b.n	6d4 <_i2c_master_interrupt_handler+0x40>
		i2c_module->INTENCLR.reg =
     7ba:	3303      	adds	r3, #3
     7bc:	752b      	strb	r3, [r5, #20]
		module->buffer_length = 0;
     7be:	2300      	movs	r3, #0
     7c0:	8363      	strh	r3, [r4, #26]
		module->status        = STATUS_OK;
     7c2:	3325      	adds	r3, #37	; 0x25
     7c4:	2200      	movs	r2, #0
     7c6:	54e2      	strb	r2, [r4, r3]
		if (module->send_stop) {
     7c8:	7aa3      	ldrb	r3, [r4, #10]
     7ca:	2b00      	cmp	r3, #0
     7cc:	d107      	bne.n	7de <_i2c_master_interrupt_handler+0x14a>
			i2c_module->INTFLAG.reg = SERCOM_I2CM_INTFLAG_MB;
     7ce:	2301      	movs	r3, #1
     7d0:	762b      	strb	r3, [r5, #24]
		if (callback_mask & (1 << I2C_MASTER_CALLBACK_WRITE_COMPLETE)) {
     7d2:	07f3      	lsls	r3, r6, #31
     7d4:	d5a7      	bpl.n	726 <_i2c_master_interrupt_handler+0x92>
			module->callbacks[I2C_MASTER_CALLBACK_WRITE_COMPLETE](module);
     7d6:	68e3      	ldr	r3, [r4, #12]
     7d8:	0020      	movs	r0, r4
     7da:	4798      	blx	r3
     7dc:	e7a3      	b.n	726 <_i2c_master_interrupt_handler+0x92>
			_i2c_master_wait_for_sync(module);
     7de:	0020      	movs	r0, r4
     7e0:	4b24      	ldr	r3, [pc, #144]	; (874 <_i2c_master_interrupt_handler+0x1e0>)
     7e2:	4798      	blx	r3
			i2c_module->CTRLB.reg |= SERCOM_I2CM_CTRLB_CMD(3);
     7e4:	686a      	ldr	r2, [r5, #4]
     7e6:	23c0      	movs	r3, #192	; 0xc0
     7e8:	029b      	lsls	r3, r3, #10
     7ea:	4313      	orrs	r3, r2
     7ec:	606b      	str	r3, [r5, #4]
     7ee:	e7f0      	b.n	7d2 <_i2c_master_interrupt_handler+0x13e>
		} else if (module->transfer_direction == I2C_TRANSFER_WRITE) {
     7f0:	2324      	movs	r3, #36	; 0x24
     7f2:	5ce3      	ldrb	r3, [r4, r3]
     7f4:	2b00      	cmp	r3, #0
     7f6:	d103      	bne.n	800 <_i2c_master_interrupt_handler+0x16c>
			_i2c_master_write(module);
     7f8:	0020      	movs	r0, r4
     7fa:	4b20      	ldr	r3, [pc, #128]	; (87c <_i2c_master_interrupt_handler+0x1e8>)
     7fc:	4798      	blx	r3
     7fe:	e792      	b.n	726 <_i2c_master_interrupt_handler+0x92>
			_i2c_master_read(module);
     800:	0020      	movs	r0, r4
     802:	4b1d      	ldr	r3, [pc, #116]	; (878 <_i2c_master_interrupt_handler+0x1e4>)
     804:	4798      	blx	r3
     806:	e78e      	b.n	726 <_i2c_master_interrupt_handler+0x92>
			(module->transfer_direction == I2C_TRANSFER_READ)) {
     808:	331f      	adds	r3, #31
     80a:	5ce3      	ldrb	r3, [r4, r3]
			(module->status == STATUS_BUSY) &&
     80c:	2b01      	cmp	r3, #1
     80e:	d196      	bne.n	73e <_i2c_master_interrupt_handler+0xaa>
		if (i2c_module->INTFLAG.reg & SERCOM_I2CM_INTFLAG_SB) {
     810:	7e2b      	ldrb	r3, [r5, #24]
     812:	079b      	lsls	r3, r3, #30
     814:	d501      	bpl.n	81a <_i2c_master_interrupt_handler+0x186>
			i2c_module->INTFLAG.reg = SERCOM_I2CM_INTFLAG_SB;
     816:	2302      	movs	r3, #2
     818:	762b      	strb	r3, [r5, #24]
		i2c_module->INTENCLR.reg =
     81a:	2303      	movs	r3, #3
     81c:	752b      	strb	r3, [r5, #20]
		module->buffer_length = 0;
     81e:	2300      	movs	r3, #0
     820:	8363      	strh	r3, [r4, #26]
		module->status        = STATUS_OK;
     822:	3325      	adds	r3, #37	; 0x25
     824:	2200      	movs	r2, #0
     826:	54e2      	strb	r2, [r4, r3]
		if ((callback_mask & (1 << I2C_MASTER_CALLBACK_READ_COMPLETE))
     828:	07b3      	lsls	r3, r6, #30
     82a:	d503      	bpl.n	834 <_i2c_master_interrupt_handler+0x1a0>
				&& (module->transfer_direction == I2C_TRANSFER_READ)) {
     82c:	2324      	movs	r3, #36	; 0x24
     82e:	5ce3      	ldrb	r3, [r4, r3]
     830:	2b01      	cmp	r3, #1
     832:	d00b      	beq.n	84c <_i2c_master_interrupt_handler+0x1b8>
		} else if ((callback_mask & (1 << I2C_MASTER_CALLBACK_WRITE_COMPLETE))
     834:	07f3      	lsls	r3, r6, #31
     836:	d400      	bmi.n	83a <_i2c_master_interrupt_handler+0x1a6>
     838:	e781      	b.n	73e <_i2c_master_interrupt_handler+0xaa>
				&& (module->transfer_direction == I2C_TRANSFER_WRITE)) {
     83a:	2324      	movs	r3, #36	; 0x24
     83c:	5ce3      	ldrb	r3, [r4, r3]
     83e:	2b00      	cmp	r3, #0
     840:	d000      	beq.n	844 <_i2c_master_interrupt_handler+0x1b0>
     842:	e77c      	b.n	73e <_i2c_master_interrupt_handler+0xaa>
			module->callbacks[I2C_MASTER_CALLBACK_WRITE_COMPLETE](module);
     844:	68e3      	ldr	r3, [r4, #12]
     846:	0020      	movs	r0, r4
     848:	4798      	blx	r3
     84a:	e778      	b.n	73e <_i2c_master_interrupt_handler+0xaa>
			module->callbacks[I2C_MASTER_CALLBACK_READ_COMPLETE](module);
     84c:	6923      	ldr	r3, [r4, #16]
     84e:	0020      	movs	r0, r4
     850:	4798      	blx	r3
     852:	e774      	b.n	73e <_i2c_master_interrupt_handler+0xaa>
			_i2c_master_wait_for_sync(module);
     854:	0020      	movs	r0, r4
     856:	4b07      	ldr	r3, [pc, #28]	; (874 <_i2c_master_interrupt_handler+0x1e0>)
     858:	4798      	blx	r3
			i2c_module->CTRLB.reg |= SERCOM_I2CM_CTRLB_ACKACT |
     85a:	686a      	ldr	r2, [r5, #4]
     85c:	23e0      	movs	r3, #224	; 0xe0
     85e:	02db      	lsls	r3, r3, #11
     860:	4313      	orrs	r3, r2
     862:	606b      	str	r3, [r5, #4]
     864:	e780      	b.n	768 <_i2c_master_interrupt_handler+0xd4>
			module->callbacks[I2C_MASTER_CALLBACK_ERROR](module);
     866:	6963      	ldr	r3, [r4, #20]
     868:	0020      	movs	r0, r4
     86a:	4798      	blx	r3
}
     86c:	e77f      	b.n	76e <_i2c_master_interrupt_handler+0xda>
     86e:	46c0      	nop			; (mov r8, r8)
     870:	2000071c 	.word	0x2000071c
     874:	000004c1 	.word	0x000004c1
     878:	000004cd 	.word	0x000004cd
     87c:	00000555 	.word	0x00000555

00000880 <advance_pointer>:
 };

 #pragma mark - Private Functions -

 static void advance_pointer(cbuf_handle_t cbuf)
 {
     880:	b510      	push	{r4, lr}
     882:	0004      	movs	r4, r0
	 //assert(cbuf);

	 if(cbuf->full)
     884:	7c03      	ldrb	r3, [r0, #16]
     886:	2b00      	cmp	r3, #0
     888:	d005      	beq.n	896 <advance_pointer+0x16>
	 {
		 cbuf->tail = (cbuf->tail + 1) % cbuf->max;
     88a:	6883      	ldr	r3, [r0, #8]
     88c:	1c58      	adds	r0, r3, #1
     88e:	68e1      	ldr	r1, [r4, #12]
     890:	4b07      	ldr	r3, [pc, #28]	; (8b0 <advance_pointer+0x30>)
     892:	4798      	blx	r3
     894:	60a1      	str	r1, [r4, #8]
	 }

	 cbuf->head = (cbuf->head + 1) % cbuf->max;
     896:	6863      	ldr	r3, [r4, #4]
     898:	1c58      	adds	r0, r3, #1
     89a:	68e1      	ldr	r1, [r4, #12]
     89c:	4b04      	ldr	r3, [pc, #16]	; (8b0 <advance_pointer+0x30>)
     89e:	4798      	blx	r3
     8a0:	6061      	str	r1, [r4, #4]

	 // We mark full because we will advance tail on the next time around
	 cbuf->full = (cbuf->head == cbuf->tail);
     8a2:	68a3      	ldr	r3, [r4, #8]
     8a4:	1a59      	subs	r1, r3, r1
     8a6:	424a      	negs	r2, r1
     8a8:	414a      	adcs	r2, r1
     8aa:	7422      	strb	r2, [r4, #16]
 }
     8ac:	bd10      	pop	{r4, pc}
     8ae:	46c0      	nop			; (mov r8, r8)
     8b0:	000021cd 	.word	0x000021cd

000008b4 <circular_buf_init>:
 }

 #pragma mark - APIs -

 cbuf_handle_t circular_buf_init(uint8_t* buffer, size_t size)
 {
     8b4:	b570      	push	{r4, r5, r6, lr}
     8b6:	0005      	movs	r5, r0
     8b8:	000c      	movs	r4, r1
	// assert(buffer && size);

	 cbuf_handle_t cbuf = malloc(sizeof(circular_buf_t));
     8ba:	2014      	movs	r0, #20
     8bc:	4b04      	ldr	r3, [pc, #16]	; (8d0 <circular_buf_init+0x1c>)
     8be:	4798      	blx	r3
	 //assert(cbuf);

	 cbuf->buffer = buffer;
     8c0:	6005      	str	r5, [r0, #0]
	 cbuf->max = size;
     8c2:	60c4      	str	r4, [r0, #12]

 void circular_buf_reset(cbuf_handle_t cbuf)
 {
	// assert(cbuf);

	 cbuf->head = 0;
     8c4:	2300      	movs	r3, #0
     8c6:	6043      	str	r3, [r0, #4]
	 cbuf->tail = 0;
     8c8:	6083      	str	r3, [r0, #8]
	 cbuf->full = false;
     8ca:	7403      	strb	r3, [r0, #16]
 }
     8cc:	bd70      	pop	{r4, r5, r6, pc}
     8ce:	46c0      	nop			; (mov r8, r8)
     8d0:	00003d15 	.word	0x00003d15

000008d4 <circular_buf_put>:

	 return cbuf->max;
 }

 void circular_buf_put(cbuf_handle_t cbuf, uint8_t data)
 {
     8d4:	b510      	push	{r4, lr}
	 //assert(cbuf && cbuf->buffer);

	 cbuf->buffer[cbuf->head] = data;
     8d6:	6803      	ldr	r3, [r0, #0]
     8d8:	6842      	ldr	r2, [r0, #4]
     8da:	5499      	strb	r1, [r3, r2]

	 advance_pointer(cbuf);
     8dc:	4b01      	ldr	r3, [pc, #4]	; (8e4 <circular_buf_put+0x10>)
     8de:	4798      	blx	r3
 }
     8e0:	bd10      	pop	{r4, pc}
     8e2:	46c0      	nop			; (mov r8, r8)
     8e4:	00000881 	.word	0x00000881

000008e8 <circular_buf_empty>:

 bool circular_buf_empty(cbuf_handle_t cbuf)
 {
	 //assert(cbuf);

	 return (!cbuf->full && (cbuf->head == cbuf->tail));
     8e8:	7c02      	ldrb	r2, [r0, #16]
     8ea:	2300      	movs	r3, #0
     8ec:	2a00      	cmp	r2, #0
     8ee:	d105      	bne.n	8fc <circular_buf_empty+0x14>
     8f0:	6843      	ldr	r3, [r0, #4]
     8f2:	6880      	ldr	r0, [r0, #8]
     8f4:	1a1b      	subs	r3, r3, r0
     8f6:	4258      	negs	r0, r3
     8f8:	4143      	adcs	r3, r0
     8fa:	b2db      	uxtb	r3, r3
     8fc:	0018      	movs	r0, r3
 }
     8fe:	4770      	bx	lr

00000900 <circular_buf_get>:
 {
     900:	b570      	push	{r4, r5, r6, lr}
     902:	0004      	movs	r4, r0
     904:	000d      	movs	r5, r1
	 if(!circular_buf_empty(cbuf))
     906:	4b0a      	ldr	r3, [pc, #40]	; (930 <circular_buf_get+0x30>)
     908:	4798      	blx	r3
     90a:	2800      	cmp	r0, #0
     90c:	d10d      	bne.n	92a <circular_buf_get+0x2a>
		 *data = cbuf->buffer[cbuf->tail];
     90e:	6823      	ldr	r3, [r4, #0]
     910:	68a2      	ldr	r2, [r4, #8]
     912:	5c9b      	ldrb	r3, [r3, r2]
     914:	702b      	strb	r3, [r5, #0]
	 cbuf->full = false;
     916:	2300      	movs	r3, #0
     918:	7423      	strb	r3, [r4, #16]
	 cbuf->tail = (cbuf->tail + 1) % cbuf->max;
     91a:	68a3      	ldr	r3, [r4, #8]
     91c:	1c58      	adds	r0, r3, #1
     91e:	68e1      	ldr	r1, [r4, #12]
     920:	4b04      	ldr	r3, [pc, #16]	; (934 <circular_buf_get+0x34>)
     922:	4798      	blx	r3
     924:	60a1      	str	r1, [r4, #8]
		 r = 0;
     926:	2000      	movs	r0, #0
 }
     928:	bd70      	pop	{r4, r5, r6, pc}
	 int r = -1;
     92a:	2001      	movs	r0, #1
     92c:	4240      	negs	r0, r0
	 return r;
     92e:	e7fb      	b.n	928 <circular_buf_get+0x28>
     930:	000008e9 	.word	0x000008e9
     934:	000021cd 	.word	0x000021cd

00000938 <usart_write_callback>:
* @fn			void usart_write_callback(struct usart_module *const usart_module)
* @brief		Callback called when the system finishes sending all the bytes requested from a UART read job
* @note
*****************************************************************************/
void usart_write_callback(struct usart_module *const usart_module)
{
     938:	b510      	push	{r4, lr}
	if(circular_buf_get(cbufTx, (uint8_t*) &latestTx) != -1) //Only continue if there are more characters to send
     93a:	4b06      	ldr	r3, [pc, #24]	; (954 <usart_write_callback+0x1c>)
     93c:	6818      	ldr	r0, [r3, #0]
     93e:	4906      	ldr	r1, [pc, #24]	; (958 <usart_write_callback+0x20>)
     940:	4b06      	ldr	r3, [pc, #24]	; (95c <usart_write_callback+0x24>)
     942:	4798      	blx	r3
     944:	1c43      	adds	r3, r0, #1
     946:	d004      	beq.n	952 <usart_write_callback+0x1a>
	{
		usart_write_buffer_job(&usart_instance, (uint8_t*) &latestTx, 1);
     948:	2201      	movs	r2, #1
     94a:	4903      	ldr	r1, [pc, #12]	; (958 <usart_write_callback+0x20>)
     94c:	4804      	ldr	r0, [pc, #16]	; (960 <usart_write_callback+0x28>)
     94e:	4b05      	ldr	r3, [pc, #20]	; (964 <usart_write_callback+0x2c>)
     950:	4798      	blx	r3
	}
	
}
     952:	bd10      	pop	{r4, pc}
     954:	20000718 	.word	0x20000718
     958:	20000714 	.word	0x20000714
     95c:	00000901 	.word	0x00000901
     960:	200002d8 	.word	0x200002d8
     964:	0000141d 	.word	0x0000141d

00000968 <InitializeSerialConsole>:
{
     968:	b530      	push	{r4, r5, lr}
     96a:	b091      	sub	sp, #68	; 0x44
	cbufRx = circular_buf_init((uint8_t*)rxCharacterBuffer, RX_BUFFER_SIZE);
     96c:	2580      	movs	r5, #128	; 0x80
     96e:	00ad      	lsls	r5, r5, #2
     970:	0029      	movs	r1, r5
     972:	4836      	ldr	r0, [pc, #216]	; (a4c <InitializeSerialConsole+0xe4>)
     974:	4c36      	ldr	r4, [pc, #216]	; (a50 <InitializeSerialConsole+0xe8>)
     976:	47a0      	blx	r4
     978:	4b36      	ldr	r3, [pc, #216]	; (a54 <InitializeSerialConsole+0xec>)
     97a:	6018      	str	r0, [r3, #0]
	cbufTx = circular_buf_init((uint8_t*)txCharacterBuffer, RX_BUFFER_SIZE);
     97c:	0029      	movs	r1, r5
     97e:	4836      	ldr	r0, [pc, #216]	; (a58 <InitializeSerialConsole+0xf0>)
     980:	47a0      	blx	r4
     982:	4b36      	ldr	r3, [pc, #216]	; (a5c <InitializeSerialConsole+0xf4>)
     984:	6018      	str	r0, [r3, #0]
{
	/* Sanity check arguments */
	Assert(config);

	/* Set default config in the config struct */
	config->data_order       = USART_DATAORDER_LSB;
     986:	2380      	movs	r3, #128	; 0x80
     988:	05db      	lsls	r3, r3, #23
     98a:	9300      	str	r3, [sp, #0]
	config->transfer_mode    = USART_TRANSFER_ASYNCHRONOUSLY;
     98c:	2300      	movs	r3, #0
     98e:	9301      	str	r3, [sp, #4]
	config->parity           = USART_PARITY_NONE;
     990:	22ff      	movs	r2, #255	; 0xff
     992:	4669      	mov	r1, sp
     994:	810a      	strh	r2, [r1, #8]
	config->stopbits         = USART_STOPBITS_1;
     996:	2200      	movs	r2, #0
     998:	728b      	strb	r3, [r1, #10]
	config->character_size   = USART_CHARACTER_SIZE_8BIT;
     99a:	72cb      	strb	r3, [r1, #11]
	config->baudrate         = 9600;
	config->receiver_enable  = true;
     99c:	2101      	movs	r1, #1
     99e:	2024      	movs	r0, #36	; 0x24
     9a0:	466c      	mov	r4, sp
     9a2:	5421      	strb	r1, [r4, r0]
	config->transmitter_enable = true;
     9a4:	3001      	adds	r0, #1
     9a6:	5421      	strb	r1, [r4, r0]
	config->clock_polarity_inverted = false;
     9a8:	3125      	adds	r1, #37	; 0x25
     9aa:	5463      	strb	r3, [r4, r1]
	config->use_external_clock = false;
     9ac:	3101      	adds	r1, #1
     9ae:	5463      	strb	r3, [r4, r1]
	config->ext_clock_freq   = 0;
     9b0:	930a      	str	r3, [sp, #40]	; 0x28
	config->mux_setting      = USART_RX_1_TX_2_XCK_3;
	config->run_in_standby   = false;
     9b2:	3105      	adds	r1, #5
     9b4:	5463      	strb	r3, [r4, r1]
	config->generator_source = GCLK_GENERATOR_0;
     9b6:	3101      	adds	r1, #1
     9b8:	5463      	strb	r3, [r4, r1]
	config->pinmux_pad0      = PINMUX_DEFAULT;
	config->pinmux_pad1      = PINMUX_DEFAULT;
	config->pinmux_pad2      = PINMUX_DEFAULT;
	config->pinmux_pad3      = PINMUX_DEFAULT;
#ifdef FEATURE_USART_OVER_SAMPLE
	config->sample_adjustment     = USART_SAMPLE_ADJUSTMENT_7_8_9;
     9ba:	9305      	str	r3, [sp, #20]
	config->sample_rate           = USART_SAMPLE_RATE_16X_ARITHMETIC;
     9bc:	8223      	strh	r3, [r4, #16]
#endif
#ifdef FEATURE_USART_LIN_SLAVE
	config->lin_slave_enable      = false;
     9be:	76e3      	strb	r3, [r4, #27]
	config->lin_header_delay = LIN_MASTER_HEADER_DELAY_0;
	config->lin_break_length = LIN_MASTER_BREAK_LENGTH_13_BIT;
#endif

#ifdef FEATURE_USART_IMMEDIATE_BUFFER_OVERFLOW_NOTIFICATION
	config->immediate_buffer_overflow_notification  = false;
     9c0:	7622      	strb	r2, [r4, #24]
#endif
#ifdef FEATURE_USART_START_FRAME_DECTION
	config->start_frame_detection_enable            = false;
     9c2:	7722      	strb	r2, [r4, #28]
#endif
#ifdef FEATURE_USART_IRDA
	config->encoding_format_enable                  = false;
     9c4:	7662      	strb	r2, [r4, #25]
	config->receive_pulse_length                    = 19;
     9c6:	2313      	movs	r3, #19
     9c8:	76a3      	strb	r3, [r4, #26]
	config->iso7816_config.inhibit_nack             = ISO7816_INHIBIT_NACK_DISABLE;
	config->iso7816_config.successive_recv_nack     = ISO7816_SUCCESSIVE_RECV_NACK_DISABLE;
	config->iso7816_config.max_iterations           = 7;
#endif
#ifdef FEATURE_USART_COLLISION_DECTION
	config->collision_detection_enable              = false;
     9ca:	7762      	strb	r2, [r4, #29]
	config_usart.baudrate    = 115200;
     9cc:	23e1      	movs	r3, #225	; 0xe1
     9ce:	025b      	lsls	r3, r3, #9
     9d0:	9308      	str	r3, [sp, #32]
	config_usart.mux_setting = EDBG_CDC_SERCOM_MUX_SETTING;
     9d2:	23c4      	movs	r3, #196	; 0xc4
     9d4:	039b      	lsls	r3, r3, #14
     9d6:	9303      	str	r3, [sp, #12]
	config_usart.pinmux_pad0 = EDBG_CDC_SERCOM_PINMUX_PAD0;
     9d8:	2301      	movs	r3, #1
     9da:	425b      	negs	r3, r3
     9dc:	930c      	str	r3, [sp, #48]	; 0x30
	config_usart.pinmux_pad1 = EDBG_CDC_SERCOM_PINMUX_PAD1;
     9de:	930d      	str	r3, [sp, #52]	; 0x34
	config_usart.pinmux_pad2 = EDBG_CDC_SERCOM_PINMUX_PAD2;
     9e0:	4b1f      	ldr	r3, [pc, #124]	; (a60 <InitializeSerialConsole+0xf8>)
     9e2:	930e      	str	r3, [sp, #56]	; 0x38
	config_usart.pinmux_pad3 = EDBG_CDC_SERCOM_PINMUX_PAD3;
     9e4:	4b1f      	ldr	r3, [pc, #124]	; (a64 <InitializeSerialConsole+0xfc>)
     9e6:	930f      	str	r3, [sp, #60]	; 0x3c
	while (usart_init(&usart_instance,
     9e8:	4d1f      	ldr	r5, [pc, #124]	; (a68 <InitializeSerialConsole+0x100>)
     9ea:	4c20      	ldr	r4, [pc, #128]	; (a6c <InitializeSerialConsole+0x104>)
     9ec:	466a      	mov	r2, sp
     9ee:	4920      	ldr	r1, [pc, #128]	; (a70 <InitializeSerialConsole+0x108>)
     9f0:	0028      	movs	r0, r5
     9f2:	47a0      	blx	r4
     9f4:	2800      	cmp	r0, #0
     9f6:	d1f9      	bne.n	9ec <InitializeSerialConsole+0x84>
	/* Sanity check arguments */
	Assert(module);
	Assert(module->hw);

	/* Get a pointer to the hardware module instance */
	SercomUsart *const usart_hw = &(module->hw->USART);
     9f8:	4d1b      	ldr	r5, [pc, #108]	; (a68 <InitializeSerialConsole+0x100>)
     9fa:	682c      	ldr	r4, [r5, #0]

#if USART_CALLBACK_MODE == true
	/* Enable Global interrupt for module */
	system_interrupt_enable(_sercom_get_interrupt_vector(module->hw));
     9fc:	0020      	movs	r0, r4
     9fe:	4b1d      	ldr	r3, [pc, #116]	; (a74 <InitializeSerialConsole+0x10c>)
     a00:	4798      	blx	r3
 * \param[in] vector Interrupt vector to enable
 */
static inline void system_interrupt_enable(
		const enum system_interrupt_vector vector)
{
	NVIC->ISER[0] = (uint32_t)(1 << ((uint32_t)vector & 0x0000001f));
     a02:	231f      	movs	r3, #31
     a04:	4018      	ands	r0, r3
     a06:	3b1e      	subs	r3, #30
     a08:	4083      	lsls	r3, r0
     a0a:	4a1b      	ldr	r2, [pc, #108]	; (a78 <InitializeSerialConsole+0x110>)
     a0c:	6013      	str	r3, [r2, #0]
	SercomUsart *const usart_hw = &(module->hw->USART);
     a0e:	682a      	ldr	r2, [r5, #0]
	return (usart_hw->SYNCBUSY.reg);
     a10:	69d3      	ldr	r3, [r2, #28]
	while (usart_is_syncing(module)) {
     a12:	2b00      	cmp	r3, #0
     a14:	d1fc      	bne.n	a10 <InitializeSerialConsole+0xa8>

	/* Wait until synchronization is complete */
	_usart_wait_for_sync(module);

	/* Enable USART module */
	usart_hw->CTRLA.reg |= SERCOM_USART_CTRLA_ENABLE;
     a16:	6823      	ldr	r3, [r4, #0]
     a18:	2202      	movs	r2, #2
     a1a:	4313      	orrs	r3, r2
     a1c:	6023      	str	r3, [r4, #0]
	usart_register_callback(&usart_instance,
     a1e:	4c12      	ldr	r4, [pc, #72]	; (a68 <InitializeSerialConsole+0x100>)
     a20:	2200      	movs	r2, #0
     a22:	4916      	ldr	r1, [pc, #88]	; (a7c <InitializeSerialConsole+0x114>)
     a24:	0020      	movs	r0, r4
     a26:	4d16      	ldr	r5, [pc, #88]	; (a80 <InitializeSerialConsole+0x118>)
     a28:	47a8      	blx	r5
	usart_register_callback(&usart_instance,
     a2a:	2201      	movs	r2, #1
     a2c:	4915      	ldr	r1, [pc, #84]	; (a84 <InitializeSerialConsole+0x11c>)
     a2e:	0020      	movs	r0, r4
     a30:	47a8      	blx	r5
{
	/* Sanity check arguments */
	Assert(module);

	/* Enable callback */
	module->callback_enable_mask |= (1 << callback_type);
     a32:	2231      	movs	r2, #49	; 0x31
     a34:	5ca3      	ldrb	r3, [r4, r2]
     a36:	2103      	movs	r1, #3
     a38:	430b      	orrs	r3, r1
     a3a:	54a3      	strb	r3, [r4, r2]
	usart_read_buffer_job(&usart_instance, (uint8_t*) &latestRx, 1);	//Kicks off constant reading of characters
     a3c:	3a30      	subs	r2, #48	; 0x30
     a3e:	4912      	ldr	r1, [pc, #72]	; (a88 <InitializeSerialConsole+0x120>)
     a40:	0020      	movs	r0, r4
     a42:	4b12      	ldr	r3, [pc, #72]	; (a8c <InitializeSerialConsole+0x124>)
     a44:	4798      	blx	r3
}
     a46:	b011      	add	sp, #68	; 0x44
     a48:	bd30      	pop	{r4, r5, pc}
     a4a:	46c0      	nop			; (mov r8, r8)
     a4c:	20000514 	.word	0x20000514
     a50:	000008b5 	.word	0x000008b5
     a54:	2000030c 	.word	0x2000030c
     a58:	20000314 	.word	0x20000314
     a5c:	20000718 	.word	0x20000718
     a60:	002a0003 	.word	0x002a0003
     a64:	002b0003 	.word	0x002b0003
     a68:	200002d8 	.word	0x200002d8
     a6c:	00001035 	.word	0x00001035
     a70:	42001800 	.word	0x42001800
     a74:	00000fa5 	.word	0x00000fa5
     a78:	e000e100 	.word	0xe000e100
     a7c:	00000939 	.word	0x00000939
     a80:	00001405 	.word	0x00001405
     a84:	00000b05 	.word	0x00000b05
     a88:	20000310 	.word	0x20000310
     a8c:	0000143d 	.word	0x0000143d

00000a90 <SerialConsoleWriteString>:
{
     a90:	b5f0      	push	{r4, r5, r6, r7, lr}
     a92:	46c6      	mov	lr, r8
     a94:	b500      	push	{lr}
     a96:	0005      	movs	r5, r0
     a98:	2400      	movs	r4, #0
	if(string != NULL)
     a9a:	2800      	cmp	r0, #0
     a9c:	d012      	beq.n	ac4 <SerialConsoleWriteString+0x34>
		for (size_t iter = 0; iter < strlen(string); iter++)
     a9e:	4e11      	ldr	r6, [pc, #68]	; (ae4 <SerialConsoleWriteString+0x54>)
			circular_buf_put(cbufTx, string[iter]);
     aa0:	4f11      	ldr	r7, [pc, #68]	; (ae8 <SerialConsoleWriteString+0x58>)
     aa2:	4b12      	ldr	r3, [pc, #72]	; (aec <SerialConsoleWriteString+0x5c>)
     aa4:	4698      	mov	r8, r3
     aa6:	e003      	b.n	ab0 <SerialConsoleWriteString+0x20>
     aa8:	5d29      	ldrb	r1, [r5, r4]
     aaa:	6838      	ldr	r0, [r7, #0]
     aac:	47c0      	blx	r8
		for (size_t iter = 0; iter < strlen(string); iter++)
     aae:	3401      	adds	r4, #1
     ab0:	0028      	movs	r0, r5
     ab2:	47b0      	blx	r6
     ab4:	4284      	cmp	r4, r0
     ab6:	d3f7      	bcc.n	aa8 <SerialConsoleWriteString+0x18>
		if(usart_get_job_status(&usart_instance, USART_TRANSCEIVER_TX) == STATUS_OK)
     ab8:	2101      	movs	r1, #1
     aba:	480d      	ldr	r0, [pc, #52]	; (af0 <SerialConsoleWriteString+0x60>)
     abc:	4b0d      	ldr	r3, [pc, #52]	; (af4 <SerialConsoleWriteString+0x64>)
     abe:	4798      	blx	r3
     ac0:	2800      	cmp	r0, #0
     ac2:	d002      	beq.n	aca <SerialConsoleWriteString+0x3a>
}
     ac4:	bc04      	pop	{r2}
     ac6:	4690      	mov	r8, r2
     ac8:	bdf0      	pop	{r4, r5, r6, r7, pc}
			circular_buf_get(cbufTx, (uint8_t*) &latestTx); //Perform only if the SERCOM TX is free (not busy)
     aca:	4c0b      	ldr	r4, [pc, #44]	; (af8 <SerialConsoleWriteString+0x68>)
     acc:	4b06      	ldr	r3, [pc, #24]	; (ae8 <SerialConsoleWriteString+0x58>)
     ace:	6818      	ldr	r0, [r3, #0]
     ad0:	0021      	movs	r1, r4
     ad2:	4b0a      	ldr	r3, [pc, #40]	; (afc <SerialConsoleWriteString+0x6c>)
     ad4:	4798      	blx	r3
			usart_write_buffer_job(&usart_instance, (uint8_t*) &latestTx, 1);
     ad6:	2201      	movs	r2, #1
     ad8:	0021      	movs	r1, r4
     ada:	4805      	ldr	r0, [pc, #20]	; (af0 <SerialConsoleWriteString+0x60>)
     adc:	4b08      	ldr	r3, [pc, #32]	; (b00 <SerialConsoleWriteString+0x70>)
     ade:	4798      	blx	r3
}
     ae0:	e7f0      	b.n	ac4 <SerialConsoleWriteString+0x34>
     ae2:	46c0      	nop			; (mov r8, r8)
     ae4:	00003ee1 	.word	0x00003ee1
     ae8:	20000718 	.word	0x20000718
     aec:	000008d5 	.word	0x000008d5
     af0:	200002d8 	.word	0x200002d8
     af4:	0000145d 	.word	0x0000145d
     af8:	20000714 	.word	0x20000714
     afc:	00000901 	.word	0x00000901
     b00:	0000141d 	.word	0x0000141d

00000b04 <usart_read_callback>:
{
     b04:	b510      	push	{r4, lr}
     b06:	b082      	sub	sp, #8
	SerialConsoleWriteString(&latestRx);
     b08:	4c0d      	ldr	r4, [pc, #52]	; (b40 <usart_read_callback+0x3c>)
     b0a:	0020      	movs	r0, r4
     b0c:	4b0d      	ldr	r3, [pc, #52]	; (b44 <usart_read_callback+0x40>)
     b0e:	4798      	blx	r3
	if(latestRx == 0x08)
     b10:	7823      	ldrb	r3, [r4, #0]
     b12:	2b08      	cmp	r3, #8
     b14:	d00c      	beq.n	b30 <usart_read_callback+0x2c>
	circular_buf_put(cbufRx, (uint8_t) latestRx); //Add the latest read character into the RX circular Buffer
     b16:	4c0a      	ldr	r4, [pc, #40]	; (b40 <usart_read_callback+0x3c>)
     b18:	7821      	ldrb	r1, [r4, #0]
     b1a:	4b0b      	ldr	r3, [pc, #44]	; (b48 <usart_read_callback+0x44>)
     b1c:	6818      	ldr	r0, [r3, #0]
     b1e:	4b0b      	ldr	r3, [pc, #44]	; (b4c <usart_read_callback+0x48>)
     b20:	4798      	blx	r3
	usart_read_buffer_job(&usart_instance, (uint8_t*) &latestRx, 1);	//Order the MCU to keep reading
     b22:	2201      	movs	r2, #1
     b24:	0021      	movs	r1, r4
     b26:	480a      	ldr	r0, [pc, #40]	; (b50 <usart_read_callback+0x4c>)
     b28:	4b0a      	ldr	r3, [pc, #40]	; (b54 <usart_read_callback+0x50>)
     b2a:	4798      	blx	r3
}
     b2c:	b002      	add	sp, #8
     b2e:	bd10      	pop	{r4, pc}
	a[0] = 0x20;
     b30:	a801      	add	r0, sp, #4
     b32:	3318      	adds	r3, #24
     b34:	7003      	strb	r3, [r0, #0]
	a[1]= 0x08;
     b36:	3b18      	subs	r3, #24
     b38:	7043      	strb	r3, [r0, #1]
	SerialConsoleWriteString(&a);
     b3a:	4b02      	ldr	r3, [pc, #8]	; (b44 <usart_read_callback+0x40>)
     b3c:	4798      	blx	r3
     b3e:	e7ea      	b.n	b16 <usart_read_callback+0x12>
     b40:	20000310 	.word	0x20000310
     b44:	00000a91 	.word	0x00000a91
     b48:	2000030c 	.word	0x2000030c
     b4c:	000008d5 	.word	0x000008d5
     b50:	200002d8 	.word	0x200002d8
     b54:	0000143d 	.word	0x0000143d

00000b58 <delay_init>:
 *
 * Not used in cycle mode.
 */
void delay_init(void)
{
}
     b58:	4770      	bx	lr
	...

00000b5c <cpu_irq_enter_critical>:
volatile bool g_interrupt_enabled = true;
#endif

void cpu_irq_enter_critical(void)
{
	if (cpu_irq_critical_section_counter == 0) {
     b5c:	4b0c      	ldr	r3, [pc, #48]	; (b90 <cpu_irq_enter_critical+0x34>)
     b5e:	681b      	ldr	r3, [r3, #0]
     b60:	2b00      	cmp	r3, #0
     b62:	d106      	bne.n	b72 <cpu_irq_enter_critical+0x16>
 */
__attribute__( ( always_inline ) ) __STATIC_INLINE uint32_t __get_PRIMASK(void)
{
  uint32_t result;

  __ASM volatile ("MRS %0, primask" : "=r" (result) );
     b64:	f3ef 8310 	mrs	r3, PRIMASK
		if (cpu_irq_is_enabled()) {
     b68:	2b00      	cmp	r3, #0
     b6a:	d007      	beq.n	b7c <cpu_irq_enter_critical+0x20>
			cpu_irq_disable();
			cpu_irq_prev_interrupt_state = true;
		} else {
			/* Make sure the to save the prev state as false */
			cpu_irq_prev_interrupt_state = false;
     b6c:	2200      	movs	r2, #0
     b6e:	4b09      	ldr	r3, [pc, #36]	; (b94 <cpu_irq_enter_critical+0x38>)
     b70:	701a      	strb	r2, [r3, #0]
		}

	}

	cpu_irq_critical_section_counter++;
     b72:	4a07      	ldr	r2, [pc, #28]	; (b90 <cpu_irq_enter_critical+0x34>)
     b74:	6813      	ldr	r3, [r2, #0]
     b76:	3301      	adds	r3, #1
     b78:	6013      	str	r3, [r2, #0]
}
     b7a:	4770      	bx	lr
  __ASM volatile ("cpsid i" : : : "memory");
     b7c:	b672      	cpsid	i
    This function ensures the apparent order of the explicit memory operations before
    and after the instruction, without ensuring their completion.
 */
__attribute__( ( always_inline ) ) __STATIC_INLINE void __DMB(void)
{
  __ASM volatile ("dmb");
     b7e:	f3bf 8f5f 	dmb	sy
			cpu_irq_disable();
     b82:	2200      	movs	r2, #0
     b84:	4b04      	ldr	r3, [pc, #16]	; (b98 <cpu_irq_enter_critical+0x3c>)
     b86:	701a      	strb	r2, [r3, #0]
			cpu_irq_prev_interrupt_state = true;
     b88:	3201      	adds	r2, #1
     b8a:	4b02      	ldr	r3, [pc, #8]	; (b94 <cpu_irq_enter_critical+0x38>)
     b8c:	701a      	strb	r2, [r3, #0]
     b8e:	e7f0      	b.n	b72 <cpu_irq_enter_critical+0x16>
     b90:	20000190 	.word	0x20000190
     b94:	20000194 	.word	0x20000194
     b98:	2000000c 	.word	0x2000000c

00000b9c <cpu_irq_leave_critical>:
void cpu_irq_leave_critical(void)
{
	/* Check if the user is trying to leave a critical section when not in a critical section */
	Assert(cpu_irq_critical_section_counter > 0);

	cpu_irq_critical_section_counter--;
     b9c:	4b08      	ldr	r3, [pc, #32]	; (bc0 <cpu_irq_leave_critical+0x24>)
     b9e:	681a      	ldr	r2, [r3, #0]
     ba0:	3a01      	subs	r2, #1
     ba2:	601a      	str	r2, [r3, #0]

	/* Only enable global interrupts when the counter reaches 0 and the state of the global interrupt flag
	   was enabled when entering critical state */
	if ((cpu_irq_critical_section_counter == 0) && (cpu_irq_prev_interrupt_state)) {
     ba4:	681b      	ldr	r3, [r3, #0]
     ba6:	2b00      	cmp	r3, #0
     ba8:	d109      	bne.n	bbe <cpu_irq_leave_critical+0x22>
     baa:	4b06      	ldr	r3, [pc, #24]	; (bc4 <cpu_irq_leave_critical+0x28>)
     bac:	781b      	ldrb	r3, [r3, #0]
     bae:	2b00      	cmp	r3, #0
     bb0:	d005      	beq.n	bbe <cpu_irq_leave_critical+0x22>
		cpu_irq_enable();
     bb2:	2201      	movs	r2, #1
     bb4:	4b04      	ldr	r3, [pc, #16]	; (bc8 <cpu_irq_leave_critical+0x2c>)
     bb6:	701a      	strb	r2, [r3, #0]
     bb8:	f3bf 8f5f 	dmb	sy
  __ASM volatile ("cpsie i" : : : "memory");
     bbc:	b662      	cpsie	i
	}
}
     bbe:	4770      	bx	lr
     bc0:	20000190 	.word	0x20000190
     bc4:	20000194 	.word	0x20000194
     bc8:	2000000c 	.word	0x2000000c

00000bcc <port_pin_set_config>:
 *  \param[in] config    Configuration settings for the pin
 */
void port_pin_set_config(
		const uint8_t gpio_pin,
		const struct port_config *const config)
{
     bcc:	b500      	push	{lr}
     bce:	b083      	sub	sp, #12
	config->mux_position = SYSTEM_PINMUX_GPIO;
     bd0:	ab01      	add	r3, sp, #4
     bd2:	2280      	movs	r2, #128	; 0x80
     bd4:	701a      	strb	r2, [r3, #0]

	struct system_pinmux_config pinmux_config;
	system_pinmux_get_config_defaults(&pinmux_config);

	pinmux_config.mux_position = SYSTEM_PINMUX_GPIO;
	pinmux_config.direction    = (enum system_pinmux_pin_dir)config->direction;
     bd6:	780a      	ldrb	r2, [r1, #0]
     bd8:	705a      	strb	r2, [r3, #1]
	pinmux_config.input_pull   = (enum system_pinmux_pin_pull)config->input_pull;
     bda:	784a      	ldrb	r2, [r1, #1]
     bdc:	709a      	strb	r2, [r3, #2]
	pinmux_config.powersave    = config->powersave;
     bde:	788a      	ldrb	r2, [r1, #2]
     be0:	70da      	strb	r2, [r3, #3]

	system_pinmux_pin_set_config(gpio_pin, &pinmux_config);
     be2:	0019      	movs	r1, r3
     be4:	4b01      	ldr	r3, [pc, #4]	; (bec <port_pin_set_config+0x20>)
     be6:	4798      	blx	r3
}
     be8:	b003      	add	sp, #12
     bea:	bd00      	pop	{pc}
     bec:	00001d41 	.word	0x00001d41

00000bf0 <long_division>:
/**
 * \internal Calculate 64 bit division, ref can be found in
 * http://en.wikipedia.org/wiki/Division_algorithm#Long_division
 */
static uint64_t long_division(uint64_t n, uint64_t d)
{
     bf0:	b5f0      	push	{r4, r5, r6, r7, lr}
     bf2:	46de      	mov	lr, fp
     bf4:	4657      	mov	r7, sl
     bf6:	464e      	mov	r6, r9
     bf8:	4645      	mov	r5, r8
     bfa:	b5e0      	push	{r5, r6, r7, lr}
     bfc:	b087      	sub	sp, #28
     bfe:	4680      	mov	r8, r0
     c00:	9104      	str	r1, [sp, #16]
     c02:	0016      	movs	r6, r2
     c04:	001f      	movs	r7, r3
	int32_t i;
	uint64_t q = 0, r = 0, bit_shift;
     c06:	2200      	movs	r2, #0
     c08:	2300      	movs	r3, #0
     c0a:	2100      	movs	r1, #0
     c0c:	468b      	mov	fp, r1
	for (i = 63; i >= 0; i--) {
     c0e:	243f      	movs	r4, #63	; 0x3f
		bit_shift = (uint64_t)1 << i;
     c10:	2001      	movs	r0, #1
     c12:	0021      	movs	r1, r4
     c14:	9600      	str	r6, [sp, #0]
     c16:	9701      	str	r7, [sp, #4]
     c18:	465c      	mov	r4, fp
     c1a:	9403      	str	r4, [sp, #12]
     c1c:	4644      	mov	r4, r8
     c1e:	9405      	str	r4, [sp, #20]
     c20:	e013      	b.n	c4a <long_division+0x5a>
     c22:	2420      	movs	r4, #32
     c24:	1a64      	subs	r4, r4, r1
     c26:	0005      	movs	r5, r0
     c28:	40e5      	lsrs	r5, r4
     c2a:	46a8      	mov	r8, r5
     c2c:	e014      	b.n	c58 <long_division+0x68>
		if (n & bit_shift) {
			r |= 0x01;
		}

		if (r >= d) {
			r = r - d;
     c2e:	9c00      	ldr	r4, [sp, #0]
     c30:	9d01      	ldr	r5, [sp, #4]
     c32:	1b12      	subs	r2, r2, r4
     c34:	41ab      	sbcs	r3, r5
			q |= bit_shift;
     c36:	465c      	mov	r4, fp
     c38:	464d      	mov	r5, r9
     c3a:	432c      	orrs	r4, r5
     c3c:	46a3      	mov	fp, r4
     c3e:	9c03      	ldr	r4, [sp, #12]
     c40:	4645      	mov	r5, r8
     c42:	432c      	orrs	r4, r5
     c44:	9403      	str	r4, [sp, #12]
	for (i = 63; i >= 0; i--) {
     c46:	3901      	subs	r1, #1
     c48:	d325      	bcc.n	c96 <long_division+0xa6>
		bit_shift = (uint64_t)1 << i;
     c4a:	2420      	movs	r4, #32
     c4c:	4264      	negs	r4, r4
     c4e:	190c      	adds	r4, r1, r4
     c50:	d4e7      	bmi.n	c22 <long_division+0x32>
     c52:	0005      	movs	r5, r0
     c54:	40a5      	lsls	r5, r4
     c56:	46a8      	mov	r8, r5
     c58:	0004      	movs	r4, r0
     c5a:	408c      	lsls	r4, r1
     c5c:	46a1      	mov	r9, r4
		r = r << 1;
     c5e:	1892      	adds	r2, r2, r2
     c60:	415b      	adcs	r3, r3
     c62:	0014      	movs	r4, r2
     c64:	001d      	movs	r5, r3
		if (n & bit_shift) {
     c66:	9e05      	ldr	r6, [sp, #20]
     c68:	464f      	mov	r7, r9
     c6a:	403e      	ands	r6, r7
     c6c:	46b4      	mov	ip, r6
     c6e:	9e04      	ldr	r6, [sp, #16]
     c70:	4647      	mov	r7, r8
     c72:	403e      	ands	r6, r7
     c74:	46b2      	mov	sl, r6
     c76:	4666      	mov	r6, ip
     c78:	4657      	mov	r7, sl
     c7a:	433e      	orrs	r6, r7
     c7c:	d003      	beq.n	c86 <long_division+0x96>
			r |= 0x01;
     c7e:	0006      	movs	r6, r0
     c80:	4326      	orrs	r6, r4
     c82:	0032      	movs	r2, r6
     c84:	002b      	movs	r3, r5
		if (r >= d) {
     c86:	9c00      	ldr	r4, [sp, #0]
     c88:	9d01      	ldr	r5, [sp, #4]
     c8a:	429d      	cmp	r5, r3
     c8c:	d8db      	bhi.n	c46 <long_division+0x56>
     c8e:	d1ce      	bne.n	c2e <long_division+0x3e>
     c90:	4294      	cmp	r4, r2
     c92:	d8d8      	bhi.n	c46 <long_division+0x56>
     c94:	e7cb      	b.n	c2e <long_division+0x3e>
     c96:	9b03      	ldr	r3, [sp, #12]
		}
	}

	return q;
}
     c98:	4658      	mov	r0, fp
     c9a:	0019      	movs	r1, r3
     c9c:	b007      	add	sp, #28
     c9e:	bc3c      	pop	{r2, r3, r4, r5}
     ca0:	4690      	mov	r8, r2
     ca2:	4699      	mov	r9, r3
     ca4:	46a2      	mov	sl, r4
     ca6:	46ab      	mov	fp, r5
     ca8:	bdf0      	pop	{r4, r5, r6, r7, pc}

00000caa <_sercom_get_sync_baud_val>:
 */
enum status_code _sercom_get_sync_baud_val(
		const uint32_t baudrate,
		const uint32_t external_clock,
		uint16_t *const baudvalue)
{
     caa:	b510      	push	{r4, lr}
	uint16_t baud_calculated = 0;
	uint32_t clock_value = external_clock;


	/* Check if baudrate is outside of valid range */
	if (baudrate > (external_clock / 2)) {
     cac:	0849      	lsrs	r1, r1, #1
		/* Return with error code */
		return STATUS_ERR_BAUDRATE_UNAVAILABLE;
     cae:	2340      	movs	r3, #64	; 0x40
     cb0:	2400      	movs	r4, #0
	if (baudrate > (external_clock / 2)) {
     cb2:	4281      	cmp	r1, r0
     cb4:	d202      	bcs.n	cbc <_sercom_get_sync_baud_val+0x12>
		return STATUS_ERR_BAUDRATE_UNAVAILABLE;
	} else {
		*baudvalue = baud_calculated;
		return STATUS_OK;
	}
}
     cb6:	0018      	movs	r0, r3
     cb8:	bd10      	pop	{r4, pc}
		baud_calculated++;
     cba:	001c      	movs	r4, r3
		clock_value = clock_value - baudrate;
     cbc:	1a09      	subs	r1, r1, r0
		baud_calculated++;
     cbe:	1c63      	adds	r3, r4, #1
     cc0:	b29b      	uxth	r3, r3
	while (clock_value >= baudrate) {
     cc2:	4288      	cmp	r0, r1
     cc4:	d9f9      	bls.n	cba <_sercom_get_sync_baud_val+0x10>
		return STATUS_ERR_BAUDRATE_UNAVAILABLE;
     cc6:	2340      	movs	r3, #64	; 0x40
	if (baud_calculated > 0xFF) {
     cc8:	2cff      	cmp	r4, #255	; 0xff
     cca:	d8f4      	bhi.n	cb6 <_sercom_get_sync_baud_val+0xc>
		*baudvalue = baud_calculated;
     ccc:	8014      	strh	r4, [r2, #0]
		return STATUS_OK;
     cce:	2300      	movs	r3, #0
     cd0:	e7f1      	b.n	cb6 <_sercom_get_sync_baud_val+0xc>
	...

00000cd4 <_sercom_get_async_baud_val>:
		const uint32_t baudrate,
		const uint32_t peripheral_clock,
		uint16_t *const baudval,
		enum sercom_asynchronous_operation_mode mode,
		enum sercom_asynchronous_sample_num sample_num)
{
     cd4:	b5f0      	push	{r4, r5, r6, r7, lr}
     cd6:	b083      	sub	sp, #12
     cd8:	000f      	movs	r7, r1
     cda:	0016      	movs	r6, r2
     cdc:	aa08      	add	r2, sp, #32
     cde:	7811      	ldrb	r1, [r2, #0]
	uint8_t baud_fp;
	uint32_t baud_int = 0;
	uint64_t temp1;

	/* Check if the baudrate is outside of valid range */
	if ((baudrate * sample_num) > peripheral_clock) {
     ce0:	0004      	movs	r4, r0
     ce2:	434c      	muls	r4, r1
		/* Return with error code */
		return STATUS_ERR_BAUDRATE_UNAVAILABLE;
     ce4:	2240      	movs	r2, #64	; 0x40
	if ((baudrate * sample_num) > peripheral_clock) {
     ce6:	42bc      	cmp	r4, r7
     ce8:	d902      	bls.n	cf0 <_sercom_get_async_baud_val+0x1c>
		baud_calculated = baud_int | (baud_fp << 13);
	}

	*baudval = baud_calculated;
	return STATUS_OK;
}
     cea:	0010      	movs	r0, r2
     cec:	b003      	add	sp, #12
     cee:	bdf0      	pop	{r4, r5, r6, r7, pc}
	if(mode == SERCOM_ASYNC_OPERATION_MODE_ARITHMETIC) {
     cf0:	2b00      	cmp	r3, #0
     cf2:	d114      	bne.n	d1e <_sercom_get_async_baud_val+0x4a>
		temp1 = ((sample_num * (uint64_t)baudrate) << SHIFT);
     cf4:	0002      	movs	r2, r0
     cf6:	0008      	movs	r0, r1
     cf8:	2100      	movs	r1, #0
     cfa:	4c19      	ldr	r4, [pc, #100]	; (d60 <_sercom_get_async_baud_val+0x8c>)
     cfc:	47a0      	blx	r4
     cfe:	0001      	movs	r1, r0
		ratio = long_division(temp1, peripheral_clock);
     d00:	003a      	movs	r2, r7
     d02:	2300      	movs	r3, #0
     d04:	2000      	movs	r0, #0
     d06:	4c17      	ldr	r4, [pc, #92]	; (d64 <_sercom_get_async_baud_val+0x90>)
     d08:	47a0      	blx	r4
		scale = ((uint64_t)1 << SHIFT) - ratio;
     d0a:	2200      	movs	r2, #0
     d0c:	2301      	movs	r3, #1
     d0e:	1a12      	subs	r2, r2, r0
     d10:	418b      	sbcs	r3, r1
		baud_calculated = (65536 * scale) >> SHIFT;
     d12:	0c12      	lsrs	r2, r2, #16
     d14:	041b      	lsls	r3, r3, #16
     d16:	431a      	orrs	r2, r3
	*baudval = baud_calculated;
     d18:	8032      	strh	r2, [r6, #0]
	return STATUS_OK;
     d1a:	2200      	movs	r2, #0
     d1c:	e7e5      	b.n	cea <_sercom_get_async_baud_val+0x16>
	uint64_t baud_calculated = 0;
     d1e:	2200      	movs	r2, #0
	} else if(mode == SERCOM_ASYNC_OPERATION_MODE_FRACTIONAL) {
     d20:	2b01      	cmp	r3, #1
     d22:	d1f9      	bne.n	d18 <_sercom_get_async_baud_val+0x44>
		temp1 = ((uint64_t)baudrate * sample_num);
     d24:	000a      	movs	r2, r1
     d26:	2300      	movs	r3, #0
     d28:	2100      	movs	r1, #0
     d2a:	4c0d      	ldr	r4, [pc, #52]	; (d60 <_sercom_get_async_baud_val+0x8c>)
     d2c:	47a0      	blx	r4
     d2e:	0002      	movs	r2, r0
     d30:	000b      	movs	r3, r1
     d32:	9200      	str	r2, [sp, #0]
     d34:	9301      	str	r3, [sp, #4]
		baud_int = long_division( peripheral_clock, temp1);
     d36:	0038      	movs	r0, r7
     d38:	2100      	movs	r1, #0
     d3a:	4c0a      	ldr	r4, [pc, #40]	; (d64 <_sercom_get_async_baud_val+0x90>)
     d3c:	47a0      	blx	r4
     d3e:	0005      	movs	r5, r0
		if(baud_int > BAUD_INT_MAX) {
     d40:	2380      	movs	r3, #128	; 0x80
     d42:	019b      	lsls	r3, r3, #6
				return STATUS_ERR_BAUDRATE_UNAVAILABLE;
     d44:	2240      	movs	r2, #64	; 0x40
		if(baud_int > BAUD_INT_MAX) {
     d46:	4298      	cmp	r0, r3
     d48:	d8cf      	bhi.n	cea <_sercom_get_async_baud_val+0x16>
		temp1 = long_division( 8 * (uint64_t)peripheral_clock, temp1);
     d4a:	0f79      	lsrs	r1, r7, #29
     d4c:	00f8      	lsls	r0, r7, #3
     d4e:	9a00      	ldr	r2, [sp, #0]
     d50:	9b01      	ldr	r3, [sp, #4]
     d52:	47a0      	blx	r4
		baud_fp = temp1 - 8 * baud_int;
     d54:	00ea      	lsls	r2, r5, #3
     d56:	1a82      	subs	r2, r0, r2
		baud_calculated = baud_int | (baud_fp << 13);
     d58:	b2d2      	uxtb	r2, r2
     d5a:	0352      	lsls	r2, r2, #13
     d5c:	432a      	orrs	r2, r5
     d5e:	e7db      	b.n	d18 <_sercom_get_async_baud_val+0x44>
     d60:	00002219 	.word	0x00002219
     d64:	00000bf1 	.word	0x00000bf1

00000d68 <sercom_set_gclk_generator>:
 *                                         forced.
 */
enum status_code sercom_set_gclk_generator(
		const enum gclk_generator generator_source,
		const bool force_change)
{
     d68:	b510      	push	{r4, lr}
     d6a:	b082      	sub	sp, #8
     d6c:	0004      	movs	r4, r0
	/* Check if valid option */
	if (!_sercom_config.generator_is_set || force_change) {
     d6e:	4b0e      	ldr	r3, [pc, #56]	; (da8 <sercom_set_gclk_generator+0x40>)
     d70:	781b      	ldrb	r3, [r3, #0]
     d72:	2b00      	cmp	r3, #0
     d74:	d007      	beq.n	d86 <sercom_set_gclk_generator+0x1e>
     d76:	2900      	cmp	r1, #0
     d78:	d105      	bne.n	d86 <sercom_set_gclk_generator+0x1e>
		/* Save config */
		_sercom_config.generator_source = generator_source;
		_sercom_config.generator_is_set = true;

		return STATUS_OK;
	} else if (generator_source == _sercom_config.generator_source) {
     d7a:	4b0b      	ldr	r3, [pc, #44]	; (da8 <sercom_set_gclk_generator+0x40>)
     d7c:	785b      	ldrb	r3, [r3, #1]
     d7e:	4283      	cmp	r3, r0
     d80:	d010      	beq.n	da4 <sercom_set_gclk_generator+0x3c>
		/* Return status OK if same config */
		return STATUS_OK;
	}

	/* Return invalid config to already initialized GCLK */
	return STATUS_ERR_ALREADY_INITIALIZED;
     d82:	201d      	movs	r0, #29
     d84:	e00c      	b.n	da0 <sercom_set_gclk_generator+0x38>
		gclk_chan_conf.source_generator = generator_source;
     d86:	a901      	add	r1, sp, #4
     d88:	700c      	strb	r4, [r1, #0]
		system_gclk_chan_set_config(SERCOM_GCLK_ID, &gclk_chan_conf);
     d8a:	2013      	movs	r0, #19
     d8c:	4b07      	ldr	r3, [pc, #28]	; (dac <sercom_set_gclk_generator+0x44>)
     d8e:	4798      	blx	r3
		system_gclk_chan_enable(SERCOM_GCLK_ID);
     d90:	2013      	movs	r0, #19
     d92:	4b07      	ldr	r3, [pc, #28]	; (db0 <sercom_set_gclk_generator+0x48>)
     d94:	4798      	blx	r3
		_sercom_config.generator_source = generator_source;
     d96:	4b04      	ldr	r3, [pc, #16]	; (da8 <sercom_set_gclk_generator+0x40>)
     d98:	705c      	strb	r4, [r3, #1]
		_sercom_config.generator_is_set = true;
     d9a:	2201      	movs	r2, #1
     d9c:	701a      	strb	r2, [r3, #0]
		return STATUS_OK;
     d9e:	2000      	movs	r0, #0
}
     da0:	b002      	add	sp, #8
     da2:	bd10      	pop	{r4, pc}
		return STATUS_OK;
     da4:	2000      	movs	r0, #0
     da6:	e7fb      	b.n	da0 <sercom_set_gclk_generator+0x38>
     da8:	20000198 	.word	0x20000198
     dac:	00001c49 	.word	0x00001c49
     db0:	00001bbd 	.word	0x00001bbd

00000db4 <_sercom_get_default_pad>:
 */
uint32_t _sercom_get_default_pad(
		Sercom *const sercom_module,
		const uint8_t pad)
{
	switch ((uintptr_t)sercom_module) {
     db4:	4b40      	ldr	r3, [pc, #256]	; (eb8 <_sercom_get_default_pad+0x104>)
     db6:	4298      	cmp	r0, r3
     db8:	d031      	beq.n	e1e <_sercom_get_default_pad+0x6a>
     dba:	d90a      	bls.n	dd2 <_sercom_get_default_pad+0x1e>
     dbc:	4b3f      	ldr	r3, [pc, #252]	; (ebc <_sercom_get_default_pad+0x108>)
     dbe:	4298      	cmp	r0, r3
     dc0:	d04d      	beq.n	e5e <_sercom_get_default_pad+0xaa>
     dc2:	4b3f      	ldr	r3, [pc, #252]	; (ec0 <_sercom_get_default_pad+0x10c>)
     dc4:	4298      	cmp	r0, r3
     dc6:	d05a      	beq.n	e7e <_sercom_get_default_pad+0xca>
     dc8:	4b3e      	ldr	r3, [pc, #248]	; (ec4 <_sercom_get_default_pad+0x110>)
     dca:	4298      	cmp	r0, r3
     dcc:	d037      	beq.n	e3e <_sercom_get_default_pad+0x8a>
		/* Auto-generate a lookup table for the default SERCOM pad defaults */
		MREPEAT(SERCOM_INST_NUM, _SERCOM_PAD_DEFAULTS_CASE, pad)
	}

	Assert(false);
	return 0;
     dce:	2000      	movs	r0, #0
}
     dd0:	4770      	bx	lr
	switch ((uintptr_t)sercom_module) {
     dd2:	4b3d      	ldr	r3, [pc, #244]	; (ec8 <_sercom_get_default_pad+0x114>)
     dd4:	4298      	cmp	r0, r3
     dd6:	d00c      	beq.n	df2 <_sercom_get_default_pad+0x3e>
     dd8:	4b3c      	ldr	r3, [pc, #240]	; (ecc <_sercom_get_default_pad+0x118>)
     dda:	4298      	cmp	r0, r3
     ddc:	d1f7      	bne.n	dce <_sercom_get_default_pad+0x1a>
		MREPEAT(SERCOM_INST_NUM, _SERCOM_PAD_DEFAULTS_CASE, pad)
     dde:	2901      	cmp	r1, #1
     de0:	d017      	beq.n	e12 <_sercom_get_default_pad+0x5e>
     de2:	2900      	cmp	r1, #0
     de4:	d05d      	beq.n	ea2 <_sercom_get_default_pad+0xee>
     de6:	2902      	cmp	r1, #2
     de8:	d015      	beq.n	e16 <_sercom_get_default_pad+0x62>
     dea:	2903      	cmp	r1, #3
     dec:	d015      	beq.n	e1a <_sercom_get_default_pad+0x66>
	return 0;
     dee:	2000      	movs	r0, #0
     df0:	e7ee      	b.n	dd0 <_sercom_get_default_pad+0x1c>
		MREPEAT(SERCOM_INST_NUM, _SERCOM_PAD_DEFAULTS_CASE, pad)
     df2:	2901      	cmp	r1, #1
     df4:	d007      	beq.n	e06 <_sercom_get_default_pad+0x52>
     df6:	2900      	cmp	r1, #0
     df8:	d051      	beq.n	e9e <_sercom_get_default_pad+0xea>
     dfa:	2902      	cmp	r1, #2
     dfc:	d005      	beq.n	e0a <_sercom_get_default_pad+0x56>
     dfe:	2903      	cmp	r1, #3
     e00:	d005      	beq.n	e0e <_sercom_get_default_pad+0x5a>
	return 0;
     e02:	2000      	movs	r0, #0
     e04:	e7e4      	b.n	dd0 <_sercom_get_default_pad+0x1c>
		MREPEAT(SERCOM_INST_NUM, _SERCOM_PAD_DEFAULTS_CASE, pad)
     e06:	4832      	ldr	r0, [pc, #200]	; (ed0 <_sercom_get_default_pad+0x11c>)
     e08:	e7e2      	b.n	dd0 <_sercom_get_default_pad+0x1c>
     e0a:	4832      	ldr	r0, [pc, #200]	; (ed4 <_sercom_get_default_pad+0x120>)
     e0c:	e7e0      	b.n	dd0 <_sercom_get_default_pad+0x1c>
     e0e:	4832      	ldr	r0, [pc, #200]	; (ed8 <_sercom_get_default_pad+0x124>)
     e10:	e7de      	b.n	dd0 <_sercom_get_default_pad+0x1c>
     e12:	4832      	ldr	r0, [pc, #200]	; (edc <_sercom_get_default_pad+0x128>)
     e14:	e7dc      	b.n	dd0 <_sercom_get_default_pad+0x1c>
     e16:	4832      	ldr	r0, [pc, #200]	; (ee0 <_sercom_get_default_pad+0x12c>)
     e18:	e7da      	b.n	dd0 <_sercom_get_default_pad+0x1c>
     e1a:	4832      	ldr	r0, [pc, #200]	; (ee4 <_sercom_get_default_pad+0x130>)
     e1c:	e7d8      	b.n	dd0 <_sercom_get_default_pad+0x1c>
     e1e:	2901      	cmp	r1, #1
     e20:	d007      	beq.n	e32 <_sercom_get_default_pad+0x7e>
     e22:	2900      	cmp	r1, #0
     e24:	d03f      	beq.n	ea6 <_sercom_get_default_pad+0xf2>
     e26:	2902      	cmp	r1, #2
     e28:	d005      	beq.n	e36 <_sercom_get_default_pad+0x82>
     e2a:	2903      	cmp	r1, #3
     e2c:	d005      	beq.n	e3a <_sercom_get_default_pad+0x86>
	return 0;
     e2e:	2000      	movs	r0, #0
     e30:	e7ce      	b.n	dd0 <_sercom_get_default_pad+0x1c>
		MREPEAT(SERCOM_INST_NUM, _SERCOM_PAD_DEFAULTS_CASE, pad)
     e32:	482d      	ldr	r0, [pc, #180]	; (ee8 <_sercom_get_default_pad+0x134>)
     e34:	e7cc      	b.n	dd0 <_sercom_get_default_pad+0x1c>
     e36:	482d      	ldr	r0, [pc, #180]	; (eec <_sercom_get_default_pad+0x138>)
     e38:	e7ca      	b.n	dd0 <_sercom_get_default_pad+0x1c>
     e3a:	482d      	ldr	r0, [pc, #180]	; (ef0 <_sercom_get_default_pad+0x13c>)
     e3c:	e7c8      	b.n	dd0 <_sercom_get_default_pad+0x1c>
     e3e:	2901      	cmp	r1, #1
     e40:	d007      	beq.n	e52 <_sercom_get_default_pad+0x9e>
     e42:	2900      	cmp	r1, #0
     e44:	d031      	beq.n	eaa <_sercom_get_default_pad+0xf6>
     e46:	2902      	cmp	r1, #2
     e48:	d005      	beq.n	e56 <_sercom_get_default_pad+0xa2>
     e4a:	2903      	cmp	r1, #3
     e4c:	d005      	beq.n	e5a <_sercom_get_default_pad+0xa6>
	return 0;
     e4e:	2000      	movs	r0, #0
     e50:	e7be      	b.n	dd0 <_sercom_get_default_pad+0x1c>
		MREPEAT(SERCOM_INST_NUM, _SERCOM_PAD_DEFAULTS_CASE, pad)
     e52:	4828      	ldr	r0, [pc, #160]	; (ef4 <_sercom_get_default_pad+0x140>)
     e54:	e7bc      	b.n	dd0 <_sercom_get_default_pad+0x1c>
     e56:	4828      	ldr	r0, [pc, #160]	; (ef8 <_sercom_get_default_pad+0x144>)
     e58:	e7ba      	b.n	dd0 <_sercom_get_default_pad+0x1c>
     e5a:	4828      	ldr	r0, [pc, #160]	; (efc <_sercom_get_default_pad+0x148>)
     e5c:	e7b8      	b.n	dd0 <_sercom_get_default_pad+0x1c>
     e5e:	2901      	cmp	r1, #1
     e60:	d007      	beq.n	e72 <_sercom_get_default_pad+0xbe>
     e62:	2900      	cmp	r1, #0
     e64:	d023      	beq.n	eae <_sercom_get_default_pad+0xfa>
     e66:	2902      	cmp	r1, #2
     e68:	d005      	beq.n	e76 <_sercom_get_default_pad+0xc2>
     e6a:	2903      	cmp	r1, #3
     e6c:	d005      	beq.n	e7a <_sercom_get_default_pad+0xc6>
	return 0;
     e6e:	2000      	movs	r0, #0
     e70:	e7ae      	b.n	dd0 <_sercom_get_default_pad+0x1c>
		MREPEAT(SERCOM_INST_NUM, _SERCOM_PAD_DEFAULTS_CASE, pad)
     e72:	4823      	ldr	r0, [pc, #140]	; (f00 <_sercom_get_default_pad+0x14c>)
     e74:	e7ac      	b.n	dd0 <_sercom_get_default_pad+0x1c>
     e76:	4823      	ldr	r0, [pc, #140]	; (f04 <_sercom_get_default_pad+0x150>)
     e78:	e7aa      	b.n	dd0 <_sercom_get_default_pad+0x1c>
     e7a:	4823      	ldr	r0, [pc, #140]	; (f08 <_sercom_get_default_pad+0x154>)
     e7c:	e7a8      	b.n	dd0 <_sercom_get_default_pad+0x1c>
     e7e:	2901      	cmp	r1, #1
     e80:	d007      	beq.n	e92 <_sercom_get_default_pad+0xde>
     e82:	2900      	cmp	r1, #0
     e84:	d015      	beq.n	eb2 <_sercom_get_default_pad+0xfe>
     e86:	2902      	cmp	r1, #2
     e88:	d005      	beq.n	e96 <_sercom_get_default_pad+0xe2>
     e8a:	2903      	cmp	r1, #3
     e8c:	d005      	beq.n	e9a <_sercom_get_default_pad+0xe6>
	return 0;
     e8e:	2000      	movs	r0, #0
     e90:	e79e      	b.n	dd0 <_sercom_get_default_pad+0x1c>
		MREPEAT(SERCOM_INST_NUM, _SERCOM_PAD_DEFAULTS_CASE, pad)
     e92:	481e      	ldr	r0, [pc, #120]	; (f0c <_sercom_get_default_pad+0x158>)
     e94:	e79c      	b.n	dd0 <_sercom_get_default_pad+0x1c>
     e96:	481e      	ldr	r0, [pc, #120]	; (f10 <_sercom_get_default_pad+0x15c>)
     e98:	e79a      	b.n	dd0 <_sercom_get_default_pad+0x1c>
     e9a:	481e      	ldr	r0, [pc, #120]	; (f14 <_sercom_get_default_pad+0x160>)
     e9c:	e798      	b.n	dd0 <_sercom_get_default_pad+0x1c>
     e9e:	481e      	ldr	r0, [pc, #120]	; (f18 <_sercom_get_default_pad+0x164>)
     ea0:	e796      	b.n	dd0 <_sercom_get_default_pad+0x1c>
     ea2:	2003      	movs	r0, #3
     ea4:	e794      	b.n	dd0 <_sercom_get_default_pad+0x1c>
     ea6:	481d      	ldr	r0, [pc, #116]	; (f1c <_sercom_get_default_pad+0x168>)
     ea8:	e792      	b.n	dd0 <_sercom_get_default_pad+0x1c>
     eaa:	481d      	ldr	r0, [pc, #116]	; (f20 <_sercom_get_default_pad+0x16c>)
     eac:	e790      	b.n	dd0 <_sercom_get_default_pad+0x1c>
     eae:	481d      	ldr	r0, [pc, #116]	; (f24 <_sercom_get_default_pad+0x170>)
     eb0:	e78e      	b.n	dd0 <_sercom_get_default_pad+0x1c>
     eb2:	481d      	ldr	r0, [pc, #116]	; (f28 <_sercom_get_default_pad+0x174>)
     eb4:	e78c      	b.n	dd0 <_sercom_get_default_pad+0x1c>
     eb6:	46c0      	nop			; (mov r8, r8)
     eb8:	42001000 	.word	0x42001000
     ebc:	42001800 	.word	0x42001800
     ec0:	42001c00 	.word	0x42001c00
     ec4:	42001400 	.word	0x42001400
     ec8:	42000800 	.word	0x42000800
     ecc:	42000c00 	.word	0x42000c00
     ed0:	00050003 	.word	0x00050003
     ed4:	00060003 	.word	0x00060003
     ed8:	00070003 	.word	0x00070003
     edc:	00010003 	.word	0x00010003
     ee0:	001e0003 	.word	0x001e0003
     ee4:	001f0003 	.word	0x001f0003
     ee8:	00090003 	.word	0x00090003
     eec:	000a0003 	.word	0x000a0003
     ef0:	000b0003 	.word	0x000b0003
     ef4:	00110003 	.word	0x00110003
     ef8:	00120003 	.word	0x00120003
     efc:	00130003 	.word	0x00130003
     f00:	000d0003 	.word	0x000d0003
     f04:	000e0003 	.word	0x000e0003
     f08:	000f0003 	.word	0x000f0003
     f0c:	00170003 	.word	0x00170003
     f10:	00180003 	.word	0x00180003
     f14:	00190003 	.word	0x00190003
     f18:	00040003 	.word	0x00040003
     f1c:	00080003 	.word	0x00080003
     f20:	00100003 	.word	0x00100003
     f24:	000c0003 	.word	0x000c0003
     f28:	00160003 	.word	0x00160003

00000f2c <_sercom_get_sercom_inst_index>:
 *
 * \return Index of given instance.
 */
uint8_t _sercom_get_sercom_inst_index(
		Sercom *const sercom_instance)
{
     f2c:	b530      	push	{r4, r5, lr}
     f2e:	b087      	sub	sp, #28
	/* Save all available SERCOM instances for compare */
	Sercom *sercom_instances[SERCOM_INST_NUM] = SERCOM_INSTS;
     f30:	4b0b      	ldr	r3, [pc, #44]	; (f60 <_sercom_get_sercom_inst_index+0x34>)
     f32:	466a      	mov	r2, sp
     f34:	cb32      	ldmia	r3!, {r1, r4, r5}
     f36:	c232      	stmia	r2!, {r1, r4, r5}
     f38:	cb32      	ldmia	r3!, {r1, r4, r5}
     f3a:	c232      	stmia	r2!, {r1, r4, r5}

	/* Find index for sercom instance */
	for (uint32_t i = 0; i < SERCOM_INST_NUM; i++) {
		if ((uintptr_t)sercom_instance == (uintptr_t)sercom_instances[i]) {
     f3c:	9b00      	ldr	r3, [sp, #0]
     f3e:	4283      	cmp	r3, r0
     f40:	d00b      	beq.n	f5a <_sercom_get_sercom_inst_index+0x2e>
     f42:	2301      	movs	r3, #1
     f44:	009a      	lsls	r2, r3, #2
     f46:	4669      	mov	r1, sp
     f48:	5852      	ldr	r2, [r2, r1]
     f4a:	4282      	cmp	r2, r0
     f4c:	d006      	beq.n	f5c <_sercom_get_sercom_inst_index+0x30>
	for (uint32_t i = 0; i < SERCOM_INST_NUM; i++) {
     f4e:	3301      	adds	r3, #1
     f50:	2b06      	cmp	r3, #6
     f52:	d1f7      	bne.n	f44 <_sercom_get_sercom_inst_index+0x18>
		}
	}

	/* Invalid data given */
	Assert(false);
	return 0;
     f54:	2000      	movs	r0, #0
}
     f56:	b007      	add	sp, #28
     f58:	bd30      	pop	{r4, r5, pc}
	for (uint32_t i = 0; i < SERCOM_INST_NUM; i++) {
     f5a:	2300      	movs	r3, #0
			return i;
     f5c:	b2d8      	uxtb	r0, r3
     f5e:	e7fa      	b.n	f56 <_sercom_get_sercom_inst_index+0x2a>
     f60:	00004578 	.word	0x00004578

00000f64 <_sercom_default_handler>:
 */
static void _sercom_default_handler(
		const uint8_t instance)
{
	Assert(false);
}
     f64:	4770      	bx	lr
	...

00000f68 <_sercom_set_handler>:
 * \param[in]  interrupt_handler  Pointer to instance callback handler.
 */
void _sercom_set_handler(
		const uint8_t instance,
		const sercom_handler_t interrupt_handler)
{
     f68:	b5f0      	push	{r4, r5, r6, r7, lr}
	/* Initialize handlers with default handler and device instances with 0 */
	if (_handler_table_initialized == false) {
     f6a:	4b0a      	ldr	r3, [pc, #40]	; (f94 <_sercom_set_handler+0x2c>)
     f6c:	781b      	ldrb	r3, [r3, #0]
     f6e:	2b00      	cmp	r3, #0
     f70:	d10c      	bne.n	f8c <_sercom_set_handler+0x24>
		for (uint32_t i = 0; i < SERCOM_INST_NUM; i++) {
			_sercom_interrupt_handlers[i] = &_sercom_default_handler;
     f72:	4f09      	ldr	r7, [pc, #36]	; (f98 <_sercom_set_handler+0x30>)
     f74:	4e09      	ldr	r6, [pc, #36]	; (f9c <_sercom_set_handler+0x34>)
			_sercom_instances[i] = NULL;
     f76:	4d0a      	ldr	r5, [pc, #40]	; (fa0 <_sercom_set_handler+0x38>)
     f78:	2400      	movs	r4, #0
			_sercom_interrupt_handlers[i] = &_sercom_default_handler;
     f7a:	51de      	str	r6, [r3, r7]
			_sercom_instances[i] = NULL;
     f7c:	195a      	adds	r2, r3, r5
     f7e:	6014      	str	r4, [r2, #0]
     f80:	3304      	adds	r3, #4
		for (uint32_t i = 0; i < SERCOM_INST_NUM; i++) {
     f82:	2b18      	cmp	r3, #24
     f84:	d1f9      	bne.n	f7a <_sercom_set_handler+0x12>
		}

		_handler_table_initialized = true;
     f86:	2201      	movs	r2, #1
     f88:	4b02      	ldr	r3, [pc, #8]	; (f94 <_sercom_set_handler+0x2c>)
     f8a:	701a      	strb	r2, [r3, #0]
	}

	/* Save interrupt handler */
	_sercom_interrupt_handlers[instance] = interrupt_handler;
     f8c:	0080      	lsls	r0, r0, #2
     f8e:	4b02      	ldr	r3, [pc, #8]	; (f98 <_sercom_set_handler+0x30>)
     f90:	50c1      	str	r1, [r0, r3]
}
     f92:	bdf0      	pop	{r4, r5, r6, r7, pc}
     f94:	2000019a 	.word	0x2000019a
     f98:	2000019c 	.word	0x2000019c
     f9c:	00000f65 	.word	0x00000f65
     fa0:	2000071c 	.word	0x2000071c

00000fa4 <_sercom_get_interrupt_vector>:
 * \retval SYSTEM_INTERRUPT_MODULE_SERCOM6
 * \retval SYSTEM_INTERRUPT_MODULE_SERCOM7
 */
enum system_interrupt_vector _sercom_get_interrupt_vector(
		Sercom *const sercom_instance)
{
     fa4:	b500      	push	{lr}
     fa6:	b083      	sub	sp, #12
	const uint8_t sercom_int_vectors[SERCOM_INST_NUM] =
     fa8:	2309      	movs	r3, #9
     faa:	466a      	mov	r2, sp
     fac:	7013      	strb	r3, [r2, #0]
     fae:	3301      	adds	r3, #1
     fb0:	7053      	strb	r3, [r2, #1]
     fb2:	3301      	adds	r3, #1
     fb4:	7093      	strb	r3, [r2, #2]
     fb6:	3301      	adds	r3, #1
     fb8:	70d3      	strb	r3, [r2, #3]
     fba:	3301      	adds	r3, #1
     fbc:	7113      	strb	r3, [r2, #4]
     fbe:	3301      	adds	r3, #1
     fc0:	7153      	strb	r3, [r2, #5]
		{
			MREPEAT(SERCOM_INST_NUM, _SERCOM_INTERRUPT_VECT_NUM, ~)
		};

	/* Retrieve the index of the SERCOM being requested */
	uint8_t instance_index = _sercom_get_sercom_inst_index(sercom_instance);
     fc2:	4b03      	ldr	r3, [pc, #12]	; (fd0 <_sercom_get_interrupt_vector+0x2c>)
     fc4:	4798      	blx	r3

	/* Get the vector number from the lookup table for the requested SERCOM */
	return (enum system_interrupt_vector)sercom_int_vectors[instance_index];
     fc6:	466b      	mov	r3, sp
     fc8:	5618      	ldrsb	r0, [r3, r0]
}
     fca:	b003      	add	sp, #12
     fcc:	bd00      	pop	{pc}
     fce:	46c0      	nop			; (mov r8, r8)
     fd0:	00000f2d 	.word	0x00000f2d

00000fd4 <SERCOM0_Handler>:

/** Auto-generate a set of interrupt handlers for each SERCOM in the device */
MREPEAT(SERCOM_INST_NUM, _SERCOM_INTERRUPT_HANDLER, ~)
     fd4:	b510      	push	{r4, lr}
     fd6:	4b02      	ldr	r3, [pc, #8]	; (fe0 <SERCOM0_Handler+0xc>)
     fd8:	681b      	ldr	r3, [r3, #0]
     fda:	2000      	movs	r0, #0
     fdc:	4798      	blx	r3
     fde:	bd10      	pop	{r4, pc}
     fe0:	2000019c 	.word	0x2000019c

00000fe4 <SERCOM1_Handler>:
     fe4:	b510      	push	{r4, lr}
     fe6:	4b02      	ldr	r3, [pc, #8]	; (ff0 <SERCOM1_Handler+0xc>)
     fe8:	685b      	ldr	r3, [r3, #4]
     fea:	2001      	movs	r0, #1
     fec:	4798      	blx	r3
     fee:	bd10      	pop	{r4, pc}
     ff0:	2000019c 	.word	0x2000019c

00000ff4 <SERCOM2_Handler>:
     ff4:	b510      	push	{r4, lr}
     ff6:	4b02      	ldr	r3, [pc, #8]	; (1000 <SERCOM2_Handler+0xc>)
     ff8:	689b      	ldr	r3, [r3, #8]
     ffa:	2002      	movs	r0, #2
     ffc:	4798      	blx	r3
     ffe:	bd10      	pop	{r4, pc}
    1000:	2000019c 	.word	0x2000019c

00001004 <SERCOM3_Handler>:
    1004:	b510      	push	{r4, lr}
    1006:	4b02      	ldr	r3, [pc, #8]	; (1010 <SERCOM3_Handler+0xc>)
    1008:	68db      	ldr	r3, [r3, #12]
    100a:	2003      	movs	r0, #3
    100c:	4798      	blx	r3
    100e:	bd10      	pop	{r4, pc}
    1010:	2000019c 	.word	0x2000019c

00001014 <SERCOM4_Handler>:
    1014:	b510      	push	{r4, lr}
    1016:	4b02      	ldr	r3, [pc, #8]	; (1020 <SERCOM4_Handler+0xc>)
    1018:	691b      	ldr	r3, [r3, #16]
    101a:	2004      	movs	r0, #4
    101c:	4798      	blx	r3
    101e:	bd10      	pop	{r4, pc}
    1020:	2000019c 	.word	0x2000019c

00001024 <SERCOM5_Handler>:
    1024:	b510      	push	{r4, lr}
    1026:	4b02      	ldr	r3, [pc, #8]	; (1030 <SERCOM5_Handler+0xc>)
    1028:	695b      	ldr	r3, [r3, #20]
    102a:	2005      	movs	r0, #5
    102c:	4798      	blx	r3
    102e:	bd10      	pop	{r4, pc}
    1030:	2000019c 	.word	0x2000019c

00001034 <usart_init>:
 */
enum status_code usart_init(
		struct usart_module *const module,
		Sercom *const hw,
		const struct usart_config *const config)
{
    1034:	b5f0      	push	{r4, r5, r6, r7, lr}
    1036:	46de      	mov	lr, fp
    1038:	4657      	mov	r7, sl
    103a:	464e      	mov	r6, r9
    103c:	4645      	mov	r5, r8
    103e:	b5e0      	push	{r5, r6, r7, lr}
    1040:	b091      	sub	sp, #68	; 0x44
    1042:	0005      	movs	r5, r0
    1044:	000c      	movs	r4, r1
    1046:	0016      	movs	r6, r2
	Assert(config);

	enum status_code status_code = STATUS_OK;

	/* Assign module pointer to software instance struct */
	module->hw = hw;
    1048:	6029      	str	r1, [r5, #0]

	/* Get a pointer to the hardware module instance */
	SercomUsart *const usart_hw = &(module->hw->USART);

	uint32_t sercom_index = _sercom_get_sercom_inst_index(module->hw);
    104a:	0008      	movs	r0, r1
    104c:	4bbc      	ldr	r3, [pc, #752]	; (1340 <usart_init+0x30c>)
    104e:	4798      	blx	r3
    1050:	0002      	movs	r2, r0
#else
	pm_index     = sercom_index + PM_APBCMASK_SERCOM0_Pos;
	gclk_index   = sercom_index + SERCOM0_GCLK_ID_CORE;
#endif

	if (usart_hw->CTRLA.reg & SERCOM_USART_CTRLA_SWRST) {
    1052:	6823      	ldr	r3, [r4, #0]
		/* The module is busy resetting itself */
		return STATUS_BUSY;
    1054:	2005      	movs	r0, #5
	if (usart_hw->CTRLA.reg & SERCOM_USART_CTRLA_SWRST) {
    1056:	07db      	lsls	r3, r3, #31
    1058:	d506      	bpl.n	1068 <usart_init+0x34>
	_sercom_set_handler(instance_index, _usart_interrupt_handler);
	_sercom_instances[instance_index] = module;
#endif

	return status_code;
}
    105a:	b011      	add	sp, #68	; 0x44
    105c:	bc3c      	pop	{r2, r3, r4, r5}
    105e:	4690      	mov	r8, r2
    1060:	4699      	mov	r9, r3
    1062:	46a2      	mov	sl, r4
    1064:	46ab      	mov	fp, r5
    1066:	bdf0      	pop	{r4, r5, r6, r7, pc}
	if (usart_hw->CTRLA.reg & SERCOM_USART_CTRLA_ENABLE) {
    1068:	6823      	ldr	r3, [r4, #0]
		return STATUS_ERR_DENIED;
    106a:	3017      	adds	r0, #23
	if (usart_hw->CTRLA.reg & SERCOM_USART_CTRLA_ENABLE) {
    106c:	079b      	lsls	r3, r3, #30
    106e:	d4f4      	bmi.n	105a <usart_init+0x26>
		case SYSTEM_CLOCK_APB_APBB:
			PM->APBBMASK.reg |= mask;
			break;

		case SYSTEM_CLOCK_APB_APBC:
			PM->APBCMASK.reg |= mask;
    1070:	49b4      	ldr	r1, [pc, #720]	; (1344 <usart_init+0x310>)
    1072:	6a08      	ldr	r0, [r1, #32]
	pm_index     = sercom_index + PM_APBCMASK_SERCOM0_Pos;
    1074:	1c97      	adds	r7, r2, #2
	system_apb_clock_set_mask(SYSTEM_CLOCK_APB_APBC, 1 << pm_index);
    1076:	2301      	movs	r3, #1
    1078:	40bb      	lsls	r3, r7
    107a:	4303      	orrs	r3, r0
    107c:	620b      	str	r3, [r1, #32]
	gclk_chan_conf.source_generator = config->generator_source;
    107e:	a90f      	add	r1, sp, #60	; 0x3c
    1080:	272d      	movs	r7, #45	; 0x2d
    1082:	5df3      	ldrb	r3, [r6, r7]
    1084:	700b      	strb	r3, [r1, #0]
	gclk_index   = sercom_index + SERCOM0_GCLK_ID_CORE;
    1086:	3214      	adds	r2, #20
	system_gclk_chan_set_config(gclk_index, &gclk_chan_conf);
    1088:	b2d3      	uxtb	r3, r2
    108a:	9302      	str	r3, [sp, #8]
    108c:	0018      	movs	r0, r3
    108e:	4bae      	ldr	r3, [pc, #696]	; (1348 <usart_init+0x314>)
    1090:	4798      	blx	r3
	system_gclk_chan_enable(gclk_index);
    1092:	9802      	ldr	r0, [sp, #8]
    1094:	4bad      	ldr	r3, [pc, #692]	; (134c <usart_init+0x318>)
    1096:	4798      	blx	r3
	sercom_set_gclk_generator(config->generator_source, false);
    1098:	5df0      	ldrb	r0, [r6, r7]
    109a:	2100      	movs	r1, #0
    109c:	4bac      	ldr	r3, [pc, #688]	; (1350 <usart_init+0x31c>)
    109e:	4798      	blx	r3
	module->character_size = config->character_size;
    10a0:	7af3      	ldrb	r3, [r6, #11]
    10a2:	716b      	strb	r3, [r5, #5]
	module->receiver_enabled = config->receiver_enable;
    10a4:	2324      	movs	r3, #36	; 0x24
    10a6:	5cf3      	ldrb	r3, [r6, r3]
    10a8:	71ab      	strb	r3, [r5, #6]
	module->transmitter_enabled = config->transmitter_enable;
    10aa:	2325      	movs	r3, #37	; 0x25
    10ac:	5cf3      	ldrb	r3, [r6, r3]
    10ae:	71eb      	strb	r3, [r5, #7]
	module->lin_slave_enabled = config->lin_slave_enable;
    10b0:	7ef3      	ldrb	r3, [r6, #27]
    10b2:	722b      	strb	r3, [r5, #8]
	module->start_frame_detection_enabled = config->start_frame_detection_enable;
    10b4:	7f33      	ldrb	r3, [r6, #28]
    10b6:	726b      	strb	r3, [r5, #9]
	SercomUsart *const usart_hw = &(module->hw->USART);
    10b8:	682b      	ldr	r3, [r5, #0]
    10ba:	4698      	mov	r8, r3
	uint32_t sercom_index = _sercom_get_sercom_inst_index(module->hw);
    10bc:	0018      	movs	r0, r3
    10be:	4ba0      	ldr	r3, [pc, #640]	; (1340 <usart_init+0x30c>)
    10c0:	4798      	blx	r3
	uint32_t gclk_index   = sercom_index + SERCOM0_GCLK_ID_CORE;
    10c2:	3014      	adds	r0, #20
	uint16_t baud  = 0;
    10c4:	2200      	movs	r2, #0
    10c6:	230e      	movs	r3, #14
    10c8:	a906      	add	r1, sp, #24
    10ca:	468c      	mov	ip, r1
    10cc:	4463      	add	r3, ip
    10ce:	801a      	strh	r2, [r3, #0]
	switch (config->sample_rate) {
    10d0:	8a32      	ldrh	r2, [r6, #16]
    10d2:	9202      	str	r2, [sp, #8]
    10d4:	2380      	movs	r3, #128	; 0x80
    10d6:	01db      	lsls	r3, r3, #7
    10d8:	429a      	cmp	r2, r3
    10da:	d100      	bne.n	10de <usart_init+0xaa>
    10dc:	e09e      	b.n	121c <usart_init+0x1e8>
    10de:	d90f      	bls.n	1100 <usart_init+0xcc>
    10e0:	23c0      	movs	r3, #192	; 0xc0
    10e2:	01db      	lsls	r3, r3, #7
    10e4:	9a02      	ldr	r2, [sp, #8]
    10e6:	429a      	cmp	r2, r3
    10e8:	d100      	bne.n	10ec <usart_init+0xb8>
    10ea:	e092      	b.n	1212 <usart_init+0x1de>
    10ec:	2380      	movs	r3, #128	; 0x80
    10ee:	021b      	lsls	r3, r3, #8
    10f0:	429a      	cmp	r2, r3
    10f2:	d000      	beq.n	10f6 <usart_init+0xc2>
    10f4:	e11f      	b.n	1336 <usart_init+0x302>
			sample_num = SERCOM_ASYNC_SAMPLE_NUM_3;
    10f6:	2303      	movs	r3, #3
    10f8:	9306      	str	r3, [sp, #24]
			mode = SERCOM_ASYNC_OPERATION_MODE_ARITHMETIC;
    10fa:	2300      	movs	r3, #0
    10fc:	9307      	str	r3, [sp, #28]
    10fe:	e008      	b.n	1112 <usart_init+0xde>
	switch (config->sample_rate) {
    1100:	2380      	movs	r3, #128	; 0x80
    1102:	019b      	lsls	r3, r3, #6
    1104:	429a      	cmp	r2, r3
    1106:	d000      	beq.n	110a <usart_init+0xd6>
    1108:	e115      	b.n	1336 <usart_init+0x302>
			sample_num = SERCOM_ASYNC_SAMPLE_NUM_16;
    110a:	2310      	movs	r3, #16
    110c:	9306      	str	r3, [sp, #24]
			mode = SERCOM_ASYNC_OPERATION_MODE_FRACTIONAL;
    110e:	3b0f      	subs	r3, #15
    1110:	9307      	str	r3, [sp, #28]
	ctrla = (uint32_t)config->data_order |
    1112:	6833      	ldr	r3, [r6, #0]
    1114:	9305      	str	r3, [sp, #20]
		(uint32_t)config->mux_setting |
    1116:	68f3      	ldr	r3, [r6, #12]
    1118:	9303      	str	r3, [sp, #12]
		config->sample_adjustment |
    111a:	6973      	ldr	r3, [r6, #20]
    111c:	9304      	str	r3, [sp, #16]
		(config->immediate_buffer_overflow_notification << SERCOM_USART_CTRLA_IBON_Pos) |
    111e:	7e33      	ldrb	r3, [r6, #24]
    1120:	469b      	mov	fp, r3
		(config->clock_polarity_inverted << SERCOM_USART_CTRLA_CPOL_Pos);
    1122:	2326      	movs	r3, #38	; 0x26
    1124:	5cf3      	ldrb	r3, [r6, r3]
    1126:	469a      	mov	sl, r3
	transfer_mode = (uint32_t)config->transfer_mode;
    1128:	6873      	ldr	r3, [r6, #4]
    112a:	4699      	mov	r9, r3
	switch (transfer_mode)
    112c:	2b00      	cmp	r3, #0
    112e:	d100      	bne.n	1132 <usart_init+0xfe>
    1130:	e0a0      	b.n	1274 <usart_init+0x240>
    1132:	2380      	movs	r3, #128	; 0x80
    1134:	055b      	lsls	r3, r3, #21
    1136:	4599      	cmp	r9, r3
    1138:	d100      	bne.n	113c <usart_init+0x108>
    113a:	e084      	b.n	1246 <usart_init+0x212>
	if(config->encoding_format_enable) {
    113c:	7e73      	ldrb	r3, [r6, #25]
    113e:	2b00      	cmp	r3, #0
    1140:	d002      	beq.n	1148 <usart_init+0x114>
		usart_hw->RXPL.reg = config->receive_pulse_length;
    1142:	7eb3      	ldrb	r3, [r6, #26]
    1144:	4642      	mov	r2, r8
    1146:	7393      	strb	r3, [r2, #14]
	SercomUsart *const usart_hw = &(module->hw->USART);
    1148:	682a      	ldr	r2, [r5, #0]
    114a:	9f02      	ldr	r7, [sp, #8]
	return (usart_hw->SYNCBUSY.reg);
    114c:	69d3      	ldr	r3, [r2, #28]
	while (usart_is_syncing(module)) {
    114e:	2b00      	cmp	r3, #0
    1150:	d1fc      	bne.n	114c <usart_init+0x118>
	usart_hw->BAUD.reg = baud;
    1152:	330e      	adds	r3, #14
    1154:	aa06      	add	r2, sp, #24
    1156:	4694      	mov	ip, r2
    1158:	4463      	add	r3, ip
    115a:	881b      	ldrh	r3, [r3, #0]
    115c:	4642      	mov	r2, r8
    115e:	8193      	strh	r3, [r2, #12]
	ctrla |= transfer_mode;
    1160:	9b05      	ldr	r3, [sp, #20]
    1162:	9a03      	ldr	r2, [sp, #12]
    1164:	4313      	orrs	r3, r2
    1166:	9a04      	ldr	r2, [sp, #16]
    1168:	4313      	orrs	r3, r2
    116a:	464a      	mov	r2, r9
    116c:	4313      	orrs	r3, r2
    116e:	431f      	orrs	r7, r3
		(config->immediate_buffer_overflow_notification << SERCOM_USART_CTRLA_IBON_Pos) |
    1170:	465b      	mov	r3, fp
    1172:	021b      	lsls	r3, r3, #8
	ctrla |= transfer_mode;
    1174:	431f      	orrs	r7, r3
		(config->clock_polarity_inverted << SERCOM_USART_CTRLA_CPOL_Pos);
    1176:	4653      	mov	r3, sl
    1178:	075b      	lsls	r3, r3, #29
	ctrla |= transfer_mode;
    117a:	431f      	orrs	r7, r3
	if (config->use_external_clock == false) {
    117c:	2327      	movs	r3, #39	; 0x27
    117e:	5cf3      	ldrb	r3, [r6, r3]
    1180:	2b00      	cmp	r3, #0
    1182:	d101      	bne.n	1188 <usart_init+0x154>
		ctrla |= SERCOM_USART_CTRLA_MODE(0x1);
    1184:	3304      	adds	r3, #4
    1186:	431f      	orrs	r7, r3
			(config->encoding_format_enable << SERCOM_USART_CTRLB_ENC_Pos) |
    1188:	7e73      	ldrb	r3, [r6, #25]
    118a:	029b      	lsls	r3, r3, #10
			(config->start_frame_detection_enable << SERCOM_USART_CTRLB_SFDE_Pos) |
    118c:	7f32      	ldrb	r2, [r6, #28]
    118e:	0252      	lsls	r2, r2, #9
			(config->encoding_format_enable << SERCOM_USART_CTRLB_ENC_Pos) |
    1190:	4313      	orrs	r3, r2
			(config->collision_detection_enable << SERCOM_USART_CTRLB_COLDEN_Pos) |
    1192:	7f72      	ldrb	r2, [r6, #29]
    1194:	0212      	lsls	r2, r2, #8
			(config->start_frame_detection_enable << SERCOM_USART_CTRLB_SFDE_Pos) |
    1196:	4313      	orrs	r3, r2
			(config->receiver_enable << SERCOM_USART_CTRLB_RXEN_Pos) |
    1198:	2224      	movs	r2, #36	; 0x24
    119a:	5cb2      	ldrb	r2, [r6, r2]
    119c:	0452      	lsls	r2, r2, #17
			(config->collision_detection_enable << SERCOM_USART_CTRLB_COLDEN_Pos) |
    119e:	4313      	orrs	r3, r2
			(config->transmitter_enable << SERCOM_USART_CTRLB_TXEN_Pos);
    11a0:	2225      	movs	r2, #37	; 0x25
    11a2:	5cb2      	ldrb	r2, [r6, r2]
    11a4:	0412      	lsls	r2, r2, #16
			(config->receiver_enable << SERCOM_USART_CTRLB_RXEN_Pos) |
    11a6:	4313      	orrs	r3, r2
	ctrlb |= (uint32_t)config->character_size;
    11a8:	7ab1      	ldrb	r1, [r6, #10]
    11aa:	7af2      	ldrb	r2, [r6, #11]
    11ac:	4311      	orrs	r1, r2
    11ae:	4319      	orrs	r1, r3
	if (config->parity != USART_PARITY_NONE) {
    11b0:	8933      	ldrh	r3, [r6, #8]
    11b2:	2bff      	cmp	r3, #255	; 0xff
    11b4:	d100      	bne.n	11b8 <usart_init+0x184>
    11b6:	e081      	b.n	12bc <usart_init+0x288>
		ctrla |= SERCOM_USART_CTRLA_FORM(1);
    11b8:	2280      	movs	r2, #128	; 0x80
    11ba:	0452      	lsls	r2, r2, #17
    11bc:	4317      	orrs	r7, r2
		ctrlb |= config->parity;
    11be:	4319      	orrs	r1, r3
	if (config->run_in_standby || system_is_debugger_present()) {
    11c0:	232c      	movs	r3, #44	; 0x2c
    11c2:	5cf3      	ldrb	r3, [r6, r3]
    11c4:	2b00      	cmp	r3, #0
    11c6:	d103      	bne.n	11d0 <usart_init+0x19c>
    11c8:	4b62      	ldr	r3, [pc, #392]	; (1354 <usart_init+0x320>)
    11ca:	789b      	ldrb	r3, [r3, #2]
    11cc:	079b      	lsls	r3, r3, #30
    11ce:	d501      	bpl.n	11d4 <usart_init+0x1a0>
		ctrla |= SERCOM_USART_CTRLA_RUNSTDBY;
    11d0:	2380      	movs	r3, #128	; 0x80
    11d2:	431f      	orrs	r7, r3
	SercomUsart *const usart_hw = &(module->hw->USART);
    11d4:	682a      	ldr	r2, [r5, #0]
	return (usart_hw->SYNCBUSY.reg);
    11d6:	69d3      	ldr	r3, [r2, #28]
	while (usart_is_syncing(module)) {
    11d8:	2b00      	cmp	r3, #0
    11da:	d1fc      	bne.n	11d6 <usart_init+0x1a2>
	usart_hw->CTRLB.reg = ctrlb;
    11dc:	4643      	mov	r3, r8
    11de:	6059      	str	r1, [r3, #4]
	SercomUsart *const usart_hw = &(module->hw->USART);
    11e0:	682a      	ldr	r2, [r5, #0]
	return (usart_hw->SYNCBUSY.reg);
    11e2:	69d3      	ldr	r3, [r2, #28]
	while (usart_is_syncing(module)) {
    11e4:	2b00      	cmp	r3, #0
    11e6:	d1fc      	bne.n	11e2 <usart_init+0x1ae>
	usart_hw->CTRLA.reg = ctrla;
    11e8:	4643      	mov	r3, r8
    11ea:	601f      	str	r7, [r3, #0]
    11ec:	ab0e      	add	r3, sp, #56	; 0x38
    11ee:	2280      	movs	r2, #128	; 0x80
    11f0:	701a      	strb	r2, [r3, #0]
	config->direction    = SYSTEM_PINMUX_PIN_DIR_INPUT;
    11f2:	2200      	movs	r2, #0
    11f4:	705a      	strb	r2, [r3, #1]
	config->powersave    = false;
    11f6:	70da      	strb	r2, [r3, #3]
	pin_conf.input_pull = SYSTEM_PINMUX_PIN_PULL_NONE;
    11f8:	709a      	strb	r2, [r3, #2]
	uint32_t pad_pinmuxes[] = {
    11fa:	6b33      	ldr	r3, [r6, #48]	; 0x30
    11fc:	930a      	str	r3, [sp, #40]	; 0x28
    11fe:	6b73      	ldr	r3, [r6, #52]	; 0x34
    1200:	930b      	str	r3, [sp, #44]	; 0x2c
    1202:	6bb3      	ldr	r3, [r6, #56]	; 0x38
    1204:	930c      	str	r3, [sp, #48]	; 0x30
    1206:	6bf3      	ldr	r3, [r6, #60]	; 0x3c
    1208:	9302      	str	r3, [sp, #8]
    120a:	930d      	str	r3, [sp, #52]	; 0x34
    120c:	2700      	movs	r7, #0
		uint32_t current_pinmux = pad_pinmuxes[pad];
    120e:	ae0a      	add	r6, sp, #40	; 0x28
    1210:	e063      	b.n	12da <usart_init+0x2a6>
			sample_num = SERCOM_ASYNC_SAMPLE_NUM_8;
    1212:	2308      	movs	r3, #8
    1214:	9306      	str	r3, [sp, #24]
			mode = SERCOM_ASYNC_OPERATION_MODE_FRACTIONAL;
    1216:	3b07      	subs	r3, #7
    1218:	9307      	str	r3, [sp, #28]
    121a:	e77a      	b.n	1112 <usart_init+0xde>
	ctrla = (uint32_t)config->data_order |
    121c:	6833      	ldr	r3, [r6, #0]
    121e:	9305      	str	r3, [sp, #20]
		(uint32_t)config->mux_setting |
    1220:	68f3      	ldr	r3, [r6, #12]
    1222:	9303      	str	r3, [sp, #12]
		config->sample_adjustment |
    1224:	6973      	ldr	r3, [r6, #20]
    1226:	9304      	str	r3, [sp, #16]
		(config->immediate_buffer_overflow_notification << SERCOM_USART_CTRLA_IBON_Pos) |
    1228:	7e33      	ldrb	r3, [r6, #24]
    122a:	469b      	mov	fp, r3
		(config->clock_polarity_inverted << SERCOM_USART_CTRLA_CPOL_Pos);
    122c:	2326      	movs	r3, #38	; 0x26
    122e:	5cf3      	ldrb	r3, [r6, r3]
    1230:	469a      	mov	sl, r3
	transfer_mode = (uint32_t)config->transfer_mode;
    1232:	6873      	ldr	r3, [r6, #4]
    1234:	4699      	mov	r9, r3
	switch (transfer_mode)
    1236:	2b00      	cmp	r3, #0
    1238:	d018      	beq.n	126c <usart_init+0x238>
    123a:	2380      	movs	r3, #128	; 0x80
    123c:	055b      	lsls	r3, r3, #21
    123e:	4599      	cmp	r9, r3
    1240:	d001      	beq.n	1246 <usart_init+0x212>
	enum status_code status_code = STATUS_OK;
    1242:	2000      	movs	r0, #0
    1244:	e025      	b.n	1292 <usart_init+0x25e>
			if (!config->use_external_clock) {
    1246:	2327      	movs	r3, #39	; 0x27
    1248:	5cf3      	ldrb	r3, [r6, r3]
    124a:	2b00      	cmp	r3, #0
    124c:	d000      	beq.n	1250 <usart_init+0x21c>
    124e:	e775      	b.n	113c <usart_init+0x108>
				status_code = _sercom_get_sync_baud_val(config->baudrate,
    1250:	6a33      	ldr	r3, [r6, #32]
    1252:	001f      	movs	r7, r3
    1254:	b2c0      	uxtb	r0, r0
    1256:	4b40      	ldr	r3, [pc, #256]	; (1358 <usart_init+0x324>)
    1258:	4798      	blx	r3
    125a:	0001      	movs	r1, r0
    125c:	220e      	movs	r2, #14
    125e:	ab06      	add	r3, sp, #24
    1260:	469c      	mov	ip, r3
    1262:	4462      	add	r2, ip
    1264:	0038      	movs	r0, r7
    1266:	4b3d      	ldr	r3, [pc, #244]	; (135c <usart_init+0x328>)
    1268:	4798      	blx	r3
    126a:	e012      	b.n	1292 <usart_init+0x25e>
			sample_num = SERCOM_ASYNC_SAMPLE_NUM_8;
    126c:	2308      	movs	r3, #8
    126e:	9306      	str	r3, [sp, #24]
			mode = SERCOM_ASYNC_OPERATION_MODE_ARITHMETIC;
    1270:	2300      	movs	r3, #0
    1272:	9307      	str	r3, [sp, #28]
			if (config->use_external_clock) {
    1274:	2327      	movs	r3, #39	; 0x27
    1276:	5cf3      	ldrb	r3, [r6, r3]
    1278:	2b00      	cmp	r3, #0
    127a:	d00e      	beq.n	129a <usart_init+0x266>
				status_code =
    127c:	9b06      	ldr	r3, [sp, #24]
    127e:	9300      	str	r3, [sp, #0]
    1280:	9b07      	ldr	r3, [sp, #28]
    1282:	220e      	movs	r2, #14
    1284:	a906      	add	r1, sp, #24
    1286:	468c      	mov	ip, r1
    1288:	4462      	add	r2, ip
    128a:	6ab1      	ldr	r1, [r6, #40]	; 0x28
    128c:	6a30      	ldr	r0, [r6, #32]
    128e:	4f34      	ldr	r7, [pc, #208]	; (1360 <usart_init+0x32c>)
    1290:	47b8      	blx	r7
	if (status_code != STATUS_OK) {
    1292:	2800      	cmp	r0, #0
    1294:	d000      	beq.n	1298 <usart_init+0x264>
    1296:	e6e0      	b.n	105a <usart_init+0x26>
    1298:	e750      	b.n	113c <usart_init+0x108>
						_sercom_get_async_baud_val(config->baudrate,
    129a:	6a33      	ldr	r3, [r6, #32]
    129c:	001f      	movs	r7, r3
    129e:	b2c0      	uxtb	r0, r0
    12a0:	4b2d      	ldr	r3, [pc, #180]	; (1358 <usart_init+0x324>)
    12a2:	4798      	blx	r3
    12a4:	0001      	movs	r1, r0
				status_code =
    12a6:	9b06      	ldr	r3, [sp, #24]
    12a8:	9300      	str	r3, [sp, #0]
    12aa:	9b07      	ldr	r3, [sp, #28]
    12ac:	220e      	movs	r2, #14
    12ae:	a806      	add	r0, sp, #24
    12b0:	4684      	mov	ip, r0
    12b2:	4462      	add	r2, ip
    12b4:	0038      	movs	r0, r7
    12b6:	4f2a      	ldr	r7, [pc, #168]	; (1360 <usart_init+0x32c>)
    12b8:	47b8      	blx	r7
    12ba:	e7ea      	b.n	1292 <usart_init+0x25e>
		if(config->lin_slave_enable) {
    12bc:	7ef3      	ldrb	r3, [r6, #27]
    12be:	2b00      	cmp	r3, #0
    12c0:	d100      	bne.n	12c4 <usart_init+0x290>
    12c2:	e77d      	b.n	11c0 <usart_init+0x18c>
			ctrla |= SERCOM_USART_CTRLA_FORM(0x4);
    12c4:	2380      	movs	r3, #128	; 0x80
    12c6:	04db      	lsls	r3, r3, #19
    12c8:	431f      	orrs	r7, r3
    12ca:	e779      	b.n	11c0 <usart_init+0x18c>
			current_pinmux = _sercom_get_default_pad(hw, pad);
    12cc:	0020      	movs	r0, r4
    12ce:	4b25      	ldr	r3, [pc, #148]	; (1364 <usart_init+0x330>)
    12d0:	4798      	blx	r3
    12d2:	e007      	b.n	12e4 <usart_init+0x2b0>
    12d4:	3701      	adds	r7, #1
	for (uint8_t pad = 0; pad < 4; pad++) {
    12d6:	2f04      	cmp	r7, #4
    12d8:	d00d      	beq.n	12f6 <usart_init+0x2c2>
    12da:	b2f9      	uxtb	r1, r7
		uint32_t current_pinmux = pad_pinmuxes[pad];
    12dc:	00bb      	lsls	r3, r7, #2
    12de:	5998      	ldr	r0, [r3, r6]
		if (current_pinmux == PINMUX_DEFAULT) {
    12e0:	2800      	cmp	r0, #0
    12e2:	d0f3      	beq.n	12cc <usart_init+0x298>
		if (current_pinmux != PINMUX_UNUSED) {
    12e4:	1c43      	adds	r3, r0, #1
    12e6:	d0f5      	beq.n	12d4 <usart_init+0x2a0>
			pin_conf.mux_position = current_pinmux & 0xFFFF;
    12e8:	a90e      	add	r1, sp, #56	; 0x38
    12ea:	7008      	strb	r0, [r1, #0]
			system_pinmux_pin_set_config(current_pinmux >> 16, &pin_conf);
    12ec:	0c00      	lsrs	r0, r0, #16
    12ee:	b2c0      	uxtb	r0, r0
    12f0:	4b1d      	ldr	r3, [pc, #116]	; (1368 <usart_init+0x334>)
    12f2:	4798      	blx	r3
    12f4:	e7ee      	b.n	12d4 <usart_init+0x2a0>
		module->callback[i]            = NULL;
    12f6:	2300      	movs	r3, #0
    12f8:	60eb      	str	r3, [r5, #12]
    12fa:	612b      	str	r3, [r5, #16]
    12fc:	616b      	str	r3, [r5, #20]
    12fe:	61ab      	str	r3, [r5, #24]
    1300:	61eb      	str	r3, [r5, #28]
    1302:	622b      	str	r3, [r5, #32]
	module->tx_buffer_ptr              = NULL;
    1304:	62ab      	str	r3, [r5, #40]	; 0x28
	module->rx_buffer_ptr              = NULL;
    1306:	626b      	str	r3, [r5, #36]	; 0x24
	module->remaining_tx_buffer_length = 0x0000;
    1308:	2200      	movs	r2, #0
    130a:	85eb      	strh	r3, [r5, #46]	; 0x2e
	module->remaining_rx_buffer_length = 0x0000;
    130c:	85ab      	strh	r3, [r5, #44]	; 0x2c
	module->callback_reg_mask          = 0x00;
    130e:	3330      	adds	r3, #48	; 0x30
    1310:	54ea      	strb	r2, [r5, r3]
	module->callback_enable_mask       = 0x00;
    1312:	3301      	adds	r3, #1
    1314:	54ea      	strb	r2, [r5, r3]
	module->rx_status                  = STATUS_OK;
    1316:	3301      	adds	r3, #1
    1318:	54ea      	strb	r2, [r5, r3]
	module->tx_status                  = STATUS_OK;
    131a:	3301      	adds	r3, #1
    131c:	54ea      	strb	r2, [r5, r3]
	uint8_t instance_index = _sercom_get_sercom_inst_index(module->hw);
    131e:	6828      	ldr	r0, [r5, #0]
    1320:	4b07      	ldr	r3, [pc, #28]	; (1340 <usart_init+0x30c>)
    1322:	4798      	blx	r3
    1324:	0004      	movs	r4, r0
	_sercom_set_handler(instance_index, _usart_interrupt_handler);
    1326:	4911      	ldr	r1, [pc, #68]	; (136c <usart_init+0x338>)
    1328:	4b11      	ldr	r3, [pc, #68]	; (1370 <usart_init+0x33c>)
    132a:	4798      	blx	r3
	_sercom_instances[instance_index] = module;
    132c:	00a4      	lsls	r4, r4, #2
    132e:	4b11      	ldr	r3, [pc, #68]	; (1374 <usart_init+0x340>)
    1330:	50e5      	str	r5, [r4, r3]
	return status_code;
    1332:	2000      	movs	r0, #0
    1334:	e691      	b.n	105a <usart_init+0x26>
	enum sercom_asynchronous_sample_num sample_num = SERCOM_ASYNC_SAMPLE_NUM_16;
    1336:	2310      	movs	r3, #16
    1338:	9306      	str	r3, [sp, #24]
	enum sercom_asynchronous_operation_mode mode = SERCOM_ASYNC_OPERATION_MODE_ARITHMETIC;
    133a:	2300      	movs	r3, #0
    133c:	9307      	str	r3, [sp, #28]
    133e:	e6e8      	b.n	1112 <usart_init+0xde>
    1340:	00000f2d 	.word	0x00000f2d
    1344:	40000400 	.word	0x40000400
    1348:	00001c49 	.word	0x00001c49
    134c:	00001bbd 	.word	0x00001bbd
    1350:	00000d69 	.word	0x00000d69
    1354:	41002000 	.word	0x41002000
    1358:	00001c65 	.word	0x00001c65
    135c:	00000cab 	.word	0x00000cab
    1360:	00000cd5 	.word	0x00000cd5
    1364:	00000db5 	.word	0x00000db5
    1368:	00001d41 	.word	0x00001d41
    136c:	00001479 	.word	0x00001479
    1370:	00000f69 	.word	0x00000f69
    1374:	2000071c 	.word	0x2000071c

00001378 <_usart_write_buffer>:
 */
enum status_code _usart_write_buffer(
		struct usart_module *const module,
		uint8_t *tx_data,
		uint16_t length)
{
    1378:	b5f8      	push	{r3, r4, r5, r6, r7, lr}
    137a:	0006      	movs	r6, r0
    137c:	000c      	movs	r4, r1
    137e:	0015      	movs	r5, r2
	Assert(module);
	Assert(module->hw);
	Assert(tx_data);

	/* Get a pointer to the hardware module instance */
	SercomUsart *const usart_hw = &(module->hw->USART);
    1380:	6807      	ldr	r7, [r0, #0]
	cpu_irq_enter_critical();
    1382:	4b0a      	ldr	r3, [pc, #40]	; (13ac <_usart_write_buffer+0x34>)
    1384:	4798      	blx	r3

	system_interrupt_enter_critical_section();

	/* Check if the USART transmitter is busy */
	if (module->remaining_tx_buffer_length > 0) {
    1386:	8df3      	ldrh	r3, [r6, #46]	; 0x2e
    1388:	b29b      	uxth	r3, r3
    138a:	2b00      	cmp	r3, #0
    138c:	d003      	beq.n	1396 <_usart_write_buffer+0x1e>
	cpu_irq_leave_critical();
    138e:	4b08      	ldr	r3, [pc, #32]	; (13b0 <_usart_write_buffer+0x38>)
    1390:	4798      	blx	r3
		system_interrupt_leave_critical_section();
		return STATUS_BUSY;
    1392:	2005      	movs	r0, #5

	/* Enable the Data Register Empty Interrupt */
	usart_hw->INTENSET.reg = SERCOM_USART_INTFLAG_DRE;

	return STATUS_OK;
}
    1394:	bdf8      	pop	{r3, r4, r5, r6, r7, pc}
	module->remaining_tx_buffer_length = length;
    1396:	85f5      	strh	r5, [r6, #46]	; 0x2e
    1398:	4b05      	ldr	r3, [pc, #20]	; (13b0 <_usart_write_buffer+0x38>)
    139a:	4798      	blx	r3
	module->tx_buffer_ptr              = tx_data;
    139c:	62b4      	str	r4, [r6, #40]	; 0x28
	module->tx_status                  = STATUS_BUSY;
    139e:	2205      	movs	r2, #5
    13a0:	2333      	movs	r3, #51	; 0x33
    13a2:	54f2      	strb	r2, [r6, r3]
	usart_hw->INTENSET.reg = SERCOM_USART_INTFLAG_DRE;
    13a4:	3b32      	subs	r3, #50	; 0x32
    13a6:	75bb      	strb	r3, [r7, #22]
	return STATUS_OK;
    13a8:	2000      	movs	r0, #0
    13aa:	e7f3      	b.n	1394 <_usart_write_buffer+0x1c>
    13ac:	00000b5d 	.word	0x00000b5d
    13b0:	00000b9d 	.word	0x00000b9d

000013b4 <_usart_read_buffer>:
 */
enum status_code _usart_read_buffer(
		struct usart_module *const module,
		uint8_t *rx_data,
		uint16_t length)
{
    13b4:	b5f8      	push	{r3, r4, r5, r6, r7, lr}
    13b6:	0004      	movs	r4, r0
    13b8:	000d      	movs	r5, r1
    13ba:	0016      	movs	r6, r2
	Assert(module);
	Assert(module->hw);
	Assert(rx_data);

	/* Get a pointer to the hardware module instance */
	SercomUsart *const usart_hw = &(module->hw->USART);
    13bc:	6807      	ldr	r7, [r0, #0]
	cpu_irq_enter_critical();
    13be:	4b0f      	ldr	r3, [pc, #60]	; (13fc <_usart_read_buffer+0x48>)
    13c0:	4798      	blx	r3

	system_interrupt_enter_critical_section();

	/* Check if the USART receiver is busy */
	if (module->remaining_rx_buffer_length > 0) {
    13c2:	8da3      	ldrh	r3, [r4, #44]	; 0x2c
    13c4:	b29b      	uxth	r3, r3
    13c6:	2b00      	cmp	r3, #0
    13c8:	d003      	beq.n	13d2 <_usart_read_buffer+0x1e>
	cpu_irq_leave_critical();
    13ca:	4b0d      	ldr	r3, [pc, #52]	; (1400 <_usart_read_buffer+0x4c>)
    13cc:	4798      	blx	r3
		system_interrupt_leave_critical_section();
		return STATUS_BUSY;
    13ce:	2005      	movs	r0, #5
		usart_hw->INTENSET.reg = SERCOM_USART_INTFLAG_RXS;
	}
#endif

	return STATUS_OK;
}
    13d0:	bdf8      	pop	{r3, r4, r5, r6, r7, pc}
	module->remaining_rx_buffer_length = length;
    13d2:	85a6      	strh	r6, [r4, #44]	; 0x2c
    13d4:	4b0a      	ldr	r3, [pc, #40]	; (1400 <_usart_read_buffer+0x4c>)
    13d6:	4798      	blx	r3
	module->rx_buffer_ptr              = rx_data;
    13d8:	6265      	str	r5, [r4, #36]	; 0x24
	module->rx_status                  = STATUS_BUSY;
    13da:	2205      	movs	r2, #5
    13dc:	2332      	movs	r3, #50	; 0x32
    13de:	54e2      	strb	r2, [r4, r3]
	usart_hw->INTENSET.reg = SERCOM_USART_INTFLAG_RXC;
    13e0:	3b2e      	subs	r3, #46	; 0x2e
    13e2:	75bb      	strb	r3, [r7, #22]
	if(module->lin_slave_enabled) {
    13e4:	7a23      	ldrb	r3, [r4, #8]
    13e6:	2b00      	cmp	r3, #0
    13e8:	d001      	beq.n	13ee <_usart_read_buffer+0x3a>
		usart_hw->INTENSET.reg = SERCOM_USART_INTFLAG_RXBRK;
    13ea:	2320      	movs	r3, #32
    13ec:	75bb      	strb	r3, [r7, #22]
	if(module->start_frame_detection_enabled) {
    13ee:	7a63      	ldrb	r3, [r4, #9]
	return STATUS_OK;
    13f0:	2000      	movs	r0, #0
	if(module->start_frame_detection_enabled) {
    13f2:	2b00      	cmp	r3, #0
    13f4:	d0ec      	beq.n	13d0 <_usart_read_buffer+0x1c>
		usart_hw->INTENSET.reg = SERCOM_USART_INTFLAG_RXS;
    13f6:	2308      	movs	r3, #8
    13f8:	75bb      	strb	r3, [r7, #22]
    13fa:	e7e9      	b.n	13d0 <_usart_read_buffer+0x1c>
    13fc:	00000b5d 	.word	0x00000b5d
    1400:	00000b9d 	.word	0x00000b9d

00001404 <usart_register_callback>:
	/* Sanity check arguments */
	Assert(module);
	Assert(callback_func);

	/* Register callback function */
	module->callback[callback_type] = callback_func;
    1404:	1c93      	adds	r3, r2, #2
    1406:	009b      	lsls	r3, r3, #2
    1408:	18c3      	adds	r3, r0, r3
    140a:	6059      	str	r1, [r3, #4]

	/* Set the bit corresponding to the callback_type */
	module->callback_reg_mask |= (1 << callback_type);
    140c:	2130      	movs	r1, #48	; 0x30
    140e:	2301      	movs	r3, #1
    1410:	4093      	lsls	r3, r2
    1412:	001a      	movs	r2, r3
    1414:	5c43      	ldrb	r3, [r0, r1]
    1416:	4313      	orrs	r3, r2
    1418:	5443      	strb	r3, [r0, r1]
}
    141a:	4770      	bx	lr

0000141c <usart_write_buffer_job>:
 */
enum status_code usart_write_buffer_job(
		struct usart_module *const module,
		uint8_t *tx_data,
		uint16_t length)
{
    141c:	b510      	push	{r4, lr}
	/* Sanity check arguments */
	Assert(module);
	Assert(tx_data);

	if (length == 0) {
		return STATUS_ERR_INVALID_ARG;
    141e:	2317      	movs	r3, #23
	if (length == 0) {
    1420:	2a00      	cmp	r2, #0
    1422:	d101      	bne.n	1428 <usart_write_buffer_job+0xc>
		return STATUS_ERR_DENIED;
	}

	/* Issue internal asynchronous write */
	return _usart_write_buffer(module, tx_data, length);
}
    1424:	0018      	movs	r0, r3
    1426:	bd10      	pop	{r4, pc}
	if (!(module->transmitter_enabled)) {
    1428:	79c4      	ldrb	r4, [r0, #7]
		return STATUS_ERR_DENIED;
    142a:	3305      	adds	r3, #5
	if (!(module->transmitter_enabled)) {
    142c:	2c00      	cmp	r4, #0
    142e:	d0f9      	beq.n	1424 <usart_write_buffer_job+0x8>
	return _usart_write_buffer(module, tx_data, length);
    1430:	4b01      	ldr	r3, [pc, #4]	; (1438 <usart_write_buffer_job+0x1c>)
    1432:	4798      	blx	r3
    1434:	0003      	movs	r3, r0
    1436:	e7f5      	b.n	1424 <usart_write_buffer_job+0x8>
    1438:	00001379 	.word	0x00001379

0000143c <usart_read_buffer_job>:
 */
enum status_code usart_read_buffer_job(
		struct usart_module *const module,
		uint8_t *rx_data,
		uint16_t length)
{
    143c:	b510      	push	{r4, lr}
	/* Sanity check arguments */
	Assert(module);
	Assert(rx_data);

	if (length == 0) {
		return STATUS_ERR_INVALID_ARG;
    143e:	2317      	movs	r3, #23
	if (length == 0) {
    1440:	2a00      	cmp	r2, #0
    1442:	d101      	bne.n	1448 <usart_read_buffer_job+0xc>
		return STATUS_ERR_DENIED;
	}

	/* Issue internal asynchronous read */
	return _usart_read_buffer(module, rx_data, length);
}
    1444:	0018      	movs	r0, r3
    1446:	bd10      	pop	{r4, pc}
	if (!(module->receiver_enabled)) {
    1448:	7984      	ldrb	r4, [r0, #6]
		return STATUS_ERR_DENIED;
    144a:	3305      	adds	r3, #5
	if (!(module->receiver_enabled)) {
    144c:	2c00      	cmp	r4, #0
    144e:	d0f9      	beq.n	1444 <usart_read_buffer_job+0x8>
	return _usart_read_buffer(module, rx_data, length);
    1450:	4b01      	ldr	r3, [pc, #4]	; (1458 <usart_read_buffer_job+0x1c>)
    1452:	4798      	blx	r3
    1454:	0003      	movs	r3, r0
    1456:	e7f5      	b.n	1444 <usart_read_buffer_job+0x8>
    1458:	000013b5 	.word	0x000013b5

0000145c <usart_get_job_status>:
	Assert(module);

	/* Variable for status code */
	enum status_code status_code;

	switch(transceiver_type) {
    145c:	2900      	cmp	r1, #0
    145e:	d003      	beq.n	1468 <usart_get_job_status+0xc>
    1460:	2901      	cmp	r1, #1
    1462:	d005      	beq.n	1470 <usart_get_job_status+0x14>
	case USART_TRANSCEIVER_TX:
			status_code = module->tx_status;
			break;

	default:
			status_code = STATUS_ERR_INVALID_ARG;
    1464:	2017      	movs	r0, #23
    1466:	e002      	b.n	146e <usart_get_job_status+0x12>
			status_code = module->rx_status;
    1468:	2332      	movs	r3, #50	; 0x32
    146a:	5cc0      	ldrb	r0, [r0, r3]
    146c:	b2c0      	uxtb	r0, r0
			break;
	}

	return status_code;
}
    146e:	4770      	bx	lr
			status_code = module->tx_status;
    1470:	2333      	movs	r3, #51	; 0x33
    1472:	5cc0      	ldrb	r0, [r0, r3]
    1474:	b2c0      	uxtb	r0, r0
			break;
    1476:	e7fa      	b.n	146e <usart_get_job_status+0x12>

00001478 <_usart_interrupt_handler>:
 * \param[in]  instance  ID of the SERCOM instance calling the interrupt
 *                       handler.
 */
void _usart_interrupt_handler(
		uint8_t instance)
{
    1478:	b5f8      	push	{r3, r4, r5, r6, r7, lr}
	uint16_t callback_status;
	uint8_t error_code;


	/* Get device instance from the look-up table */
	struct usart_module *module
    147a:	0080      	lsls	r0, r0, #2
    147c:	4b62      	ldr	r3, [pc, #392]	; (1608 <_usart_interrupt_handler+0x190>)
    147e:	58c5      	ldr	r5, [r0, r3]
		= (struct usart_module *)_sercom_instances[instance];

	/* Pointer to the hardware module instance */
	SercomUsart *const usart_hw
		= &(module->hw->USART);
    1480:	682c      	ldr	r4, [r5, #0]
	return (usart_hw->SYNCBUSY.reg);
    1482:	69e3      	ldr	r3, [r4, #28]
	while (usart_is_syncing(module)) {
    1484:	2b00      	cmp	r3, #0
    1486:	d1fc      	bne.n	1482 <_usart_interrupt_handler+0xa>

	/* Wait for the synchronization to complete */
	_usart_wait_for_sync(module);

	/* Read and mask interrupt flag register */
	interrupt_status = usart_hw->INTFLAG.reg;
    1488:	7e23      	ldrb	r3, [r4, #24]
	interrupt_status &= usart_hw->INTENSET.reg;
    148a:	7da6      	ldrb	r6, [r4, #22]
    148c:	401e      	ands	r6, r3
	callback_status = module->callback_reg_mask &
    148e:	2330      	movs	r3, #48	; 0x30
    1490:	5ceb      	ldrb	r3, [r5, r3]
    1492:	2231      	movs	r2, #49	; 0x31
    1494:	5caf      	ldrb	r7, [r5, r2]
    1496:	401f      	ands	r7, r3
			module->callback_enable_mask;

	/* Check if a DATA READY interrupt has occurred,
	 * and if there is more to transfer */
	if (interrupt_status & SERCOM_USART_INTFLAG_DRE) {
    1498:	07f3      	lsls	r3, r6, #31
    149a:	d522      	bpl.n	14e2 <_usart_interrupt_handler+0x6a>
		if (module->remaining_tx_buffer_length) {
    149c:	8deb      	ldrh	r3, [r5, #46]	; 0x2e
    149e:	b29b      	uxth	r3, r3
    14a0:	2b00      	cmp	r3, #0
    14a2:	d01c      	beq.n	14de <_usart_interrupt_handler+0x66>
			/* Write value will be at least 8-bits long */
			uint16_t data_to_send = *(module->tx_buffer_ptr);
    14a4:	6aaa      	ldr	r2, [r5, #40]	; 0x28
    14a6:	7813      	ldrb	r3, [r2, #0]
    14a8:	b2db      	uxtb	r3, r3
			/* Increment 8-bit pointer */
			(module->tx_buffer_ptr)++;
    14aa:	1c51      	adds	r1, r2, #1
    14ac:	62a9      	str	r1, [r5, #40]	; 0x28

			if (module->character_size == USART_CHARACTER_SIZE_9BIT) {
    14ae:	7969      	ldrb	r1, [r5, #5]
    14b0:	2901      	cmp	r1, #1
    14b2:	d00e      	beq.n	14d2 <_usart_interrupt_handler+0x5a>
			uint16_t data_to_send = *(module->tx_buffer_ptr);
    14b4:	b29b      	uxth	r3, r3
				data_to_send |= (*(module->tx_buffer_ptr) << 8);
				/* Increment 8-bit pointer */
				(module->tx_buffer_ptr)++;
			}
			/* Write the data to send */
			usart_hw->DATA.reg = (data_to_send & SERCOM_USART_DATA_MASK);
    14b6:	05db      	lsls	r3, r3, #23
    14b8:	0ddb      	lsrs	r3, r3, #23
    14ba:	8523      	strh	r3, [r4, #40]	; 0x28

			if (--(module->remaining_tx_buffer_length) == 0) {
    14bc:	8deb      	ldrh	r3, [r5, #46]	; 0x2e
    14be:	3b01      	subs	r3, #1
    14c0:	b29b      	uxth	r3, r3
    14c2:	85eb      	strh	r3, [r5, #46]	; 0x2e
    14c4:	2b00      	cmp	r3, #0
    14c6:	d10c      	bne.n	14e2 <_usart_interrupt_handler+0x6a>
				/* Disable the Data Register Empty Interrupt */
				usart_hw->INTENCLR.reg = SERCOM_USART_INTFLAG_DRE;
    14c8:	3301      	adds	r3, #1
    14ca:	7523      	strb	r3, [r4, #20]
				/* Enable Transmission Complete interrupt */
				usart_hw->INTENSET.reg = SERCOM_USART_INTFLAG_TXC;
    14cc:	3301      	adds	r3, #1
    14ce:	75a3      	strb	r3, [r4, #22]
    14d0:	e007      	b.n	14e2 <_usart_interrupt_handler+0x6a>
				data_to_send |= (*(module->tx_buffer_ptr) << 8);
    14d2:	7851      	ldrb	r1, [r2, #1]
    14d4:	0209      	lsls	r1, r1, #8
    14d6:	430b      	orrs	r3, r1
				(module->tx_buffer_ptr)++;
    14d8:	3202      	adds	r2, #2
    14da:	62aa      	str	r2, [r5, #40]	; 0x28
    14dc:	e7eb      	b.n	14b6 <_usart_interrupt_handler+0x3e>

			}
		} else {
			usart_hw->INTENCLR.reg = SERCOM_USART_INTFLAG_DRE;
    14de:	2301      	movs	r3, #1
    14e0:	7523      	strb	r3, [r4, #20]
		}
	}

	/* Check if the Transmission Complete interrupt has occurred and
	 * that the transmit buffer is empty */
	if (interrupt_status & SERCOM_USART_INTFLAG_TXC) {
    14e2:	07b3      	lsls	r3, r6, #30
    14e4:	d506      	bpl.n	14f4 <_usart_interrupt_handler+0x7c>

		/* Disable TX Complete Interrupt, and set STATUS_OK */
		usart_hw->INTENCLR.reg = SERCOM_USART_INTFLAG_TXC;
    14e6:	2302      	movs	r3, #2
    14e8:	7523      	strb	r3, [r4, #20]
		module->tx_status = STATUS_OK;
    14ea:	2200      	movs	r2, #0
    14ec:	3331      	adds	r3, #49	; 0x31
    14ee:	54ea      	strb	r2, [r5, r3]

		/* Run callback if registered and enabled */
		if (callback_status & (1 << USART_CALLBACK_BUFFER_TRANSMITTED)) {
    14f0:	07fb      	lsls	r3, r7, #31
    14f2:	d41a      	bmi.n	152a <_usart_interrupt_handler+0xb2>
		}
	}

	/* Check if the Receive Complete interrupt has occurred, and that
	 * there's more data to receive */
	if (interrupt_status & SERCOM_USART_INTFLAG_RXC) {
    14f4:	0773      	lsls	r3, r6, #29
    14f6:	d565      	bpl.n	15c4 <_usart_interrupt_handler+0x14c>

		if (module->remaining_rx_buffer_length) {
    14f8:	8dab      	ldrh	r3, [r5, #44]	; 0x2c
    14fa:	b29b      	uxth	r3, r3
    14fc:	2b00      	cmp	r3, #0
    14fe:	d05f      	beq.n	15c0 <_usart_interrupt_handler+0x148>
			/* Read out the status code and mask away all but the 4 LSBs*/
			error_code = (uint8_t)(usart_hw->STATUS.reg & SERCOM_USART_STATUS_MASK);
    1500:	8b63      	ldrh	r3, [r4, #26]
    1502:	b2db      	uxtb	r3, r3
#if !SAMD20
			/* CTS status should not be considered as an error */
			if(error_code & SERCOM_USART_STATUS_CTS) {
    1504:	071a      	lsls	r2, r3, #28
    1506:	d414      	bmi.n	1532 <_usart_interrupt_handler+0xba>
			error_code = (uint8_t)(usart_hw->STATUS.reg & SERCOM_USART_STATUS_MASK);
    1508:	223f      	movs	r2, #63	; 0x3f
    150a:	4013      	ands	r3, r2
			if(error_code & SERCOM_USART_STATUS_TXE) {
				error_code &= ~SERCOM_USART_STATUS_TXE;
			}
#endif
			/* Check if an error has occurred during the receiving */
			if (error_code) {
    150c:	2b00      	cmp	r3, #0
    150e:	d034      	beq.n	157a <_usart_interrupt_handler+0x102>
				/* Check which error occurred */
				if (error_code & SERCOM_USART_STATUS_FERR) {
    1510:	079a      	lsls	r2, r3, #30
    1512:	d511      	bpl.n	1538 <_usart_interrupt_handler+0xc0>
					/* Store the error code and clear flag by writing 1 to it */
					module->rx_status = STATUS_ERR_BAD_FORMAT;
    1514:	221a      	movs	r2, #26
    1516:	2332      	movs	r3, #50	; 0x32
    1518:	54ea      	strb	r2, [r5, r3]
					usart_hw->STATUS.reg = SERCOM_USART_STATUS_FERR;
    151a:	3b30      	subs	r3, #48	; 0x30
    151c:	8363      	strh	r3, [r4, #26]
					usart_hw->STATUS.reg = SERCOM_USART_STATUS_COLL;
				}
#endif

				/* Run callback if registered and enabled */
				if (callback_status
    151e:	077b      	lsls	r3, r7, #29
    1520:	d550      	bpl.n	15c4 <_usart_interrupt_handler+0x14c>
						& (1 << USART_CALLBACK_ERROR)) {
					(*(module->callback[USART_CALLBACK_ERROR]))(module);
    1522:	0028      	movs	r0, r5
    1524:	696b      	ldr	r3, [r5, #20]
    1526:	4798      	blx	r3
    1528:	e04c      	b.n	15c4 <_usart_interrupt_handler+0x14c>
			(*(module->callback[USART_CALLBACK_BUFFER_TRANSMITTED]))(module);
    152a:	0028      	movs	r0, r5
    152c:	68eb      	ldr	r3, [r5, #12]
    152e:	4798      	blx	r3
    1530:	e7e0      	b.n	14f4 <_usart_interrupt_handler+0x7c>
				error_code &= ~SERCOM_USART_STATUS_CTS;
    1532:	2237      	movs	r2, #55	; 0x37
    1534:	4013      	ands	r3, r2
    1536:	e7e9      	b.n	150c <_usart_interrupt_handler+0x94>
				} else if (error_code & SERCOM_USART_STATUS_BUFOVF) {
    1538:	075a      	lsls	r2, r3, #29
    153a:	d505      	bpl.n	1548 <_usart_interrupt_handler+0xd0>
					module->rx_status = STATUS_ERR_OVERFLOW;
    153c:	221e      	movs	r2, #30
    153e:	2332      	movs	r3, #50	; 0x32
    1540:	54ea      	strb	r2, [r5, r3]
					usart_hw->STATUS.reg = SERCOM_USART_STATUS_BUFOVF;
    1542:	3b2e      	subs	r3, #46	; 0x2e
    1544:	8363      	strh	r3, [r4, #26]
    1546:	e7ea      	b.n	151e <_usart_interrupt_handler+0xa6>
				} else if (error_code & SERCOM_USART_STATUS_PERR) {
    1548:	07da      	lsls	r2, r3, #31
    154a:	d505      	bpl.n	1558 <_usart_interrupt_handler+0xe0>
					module->rx_status = STATUS_ERR_BAD_DATA;
    154c:	2213      	movs	r2, #19
    154e:	2332      	movs	r3, #50	; 0x32
    1550:	54ea      	strb	r2, [r5, r3]
					usart_hw->STATUS.reg = SERCOM_USART_STATUS_PERR;
    1552:	3b31      	subs	r3, #49	; 0x31
    1554:	8363      	strh	r3, [r4, #26]
    1556:	e7e2      	b.n	151e <_usart_interrupt_handler+0xa6>
				else if (error_code & SERCOM_USART_STATUS_ISF) {
    1558:	06da      	lsls	r2, r3, #27
    155a:	d505      	bpl.n	1568 <_usart_interrupt_handler+0xf0>
					module->rx_status = STATUS_ERR_PROTOCOL;
    155c:	2242      	movs	r2, #66	; 0x42
    155e:	2332      	movs	r3, #50	; 0x32
    1560:	54ea      	strb	r2, [r5, r3]
					usart_hw->STATUS.reg = SERCOM_USART_STATUS_ISF;
    1562:	3b22      	subs	r3, #34	; 0x22
    1564:	8363      	strh	r3, [r4, #26]
    1566:	e7da      	b.n	151e <_usart_interrupt_handler+0xa6>
				else if (error_code & SERCOM_USART_STATUS_COLL) {
    1568:	2220      	movs	r2, #32
    156a:	421a      	tst	r2, r3
    156c:	d0d7      	beq.n	151e <_usart_interrupt_handler+0xa6>
					module->rx_status = STATUS_ERR_PACKET_COLLISION;
    156e:	3221      	adds	r2, #33	; 0x21
    1570:	2332      	movs	r3, #50	; 0x32
    1572:	54ea      	strb	r2, [r5, r3]
					usart_hw->STATUS.reg = SERCOM_USART_STATUS_COLL;
    1574:	3b12      	subs	r3, #18
    1576:	8363      	strh	r3, [r4, #26]
    1578:	e7d1      	b.n	151e <_usart_interrupt_handler+0xa6>

			} else {

				/* Read current packet from DATA register,
				 * increment buffer pointer and decrement buffer length */
				uint16_t received_data = (usart_hw->DATA.reg & SERCOM_USART_DATA_MASK);
    157a:	8d23      	ldrh	r3, [r4, #40]	; 0x28
    157c:	05db      	lsls	r3, r3, #23
    157e:	0ddb      	lsrs	r3, r3, #23

				/* Read value will be at least 8-bits long */
				*(module->rx_buffer_ptr) = received_data;
    1580:	b2da      	uxtb	r2, r3
    1582:	6a69      	ldr	r1, [r5, #36]	; 0x24
    1584:	700a      	strb	r2, [r1, #0]
				/* Increment 8-bit pointer */
				module->rx_buffer_ptr += 1;
    1586:	6a6a      	ldr	r2, [r5, #36]	; 0x24
    1588:	1c51      	adds	r1, r2, #1
    158a:	6269      	str	r1, [r5, #36]	; 0x24

				if (module->character_size == USART_CHARACTER_SIZE_9BIT) {
    158c:	7969      	ldrb	r1, [r5, #5]
    158e:	2901      	cmp	r1, #1
    1590:	d010      	beq.n	15b4 <_usart_interrupt_handler+0x13c>
					/* Increment 8-bit pointer */
					module->rx_buffer_ptr += 1;
				}

				/* Check if the last character have been received */
				if(--(module->remaining_rx_buffer_length) == 0) {
    1592:	8dab      	ldrh	r3, [r5, #44]	; 0x2c
    1594:	3b01      	subs	r3, #1
    1596:	b29b      	uxth	r3, r3
    1598:	85ab      	strh	r3, [r5, #44]	; 0x2c
    159a:	2b00      	cmp	r3, #0
    159c:	d112      	bne.n	15c4 <_usart_interrupt_handler+0x14c>
					/* Disable RX Complete Interrupt,
					 * and set STATUS_OK */
					usart_hw->INTENCLR.reg = SERCOM_USART_INTFLAG_RXC;
    159e:	3304      	adds	r3, #4
    15a0:	7523      	strb	r3, [r4, #20]
					module->rx_status = STATUS_OK;
    15a2:	2200      	movs	r2, #0
    15a4:	332e      	adds	r3, #46	; 0x2e
    15a6:	54ea      	strb	r2, [r5, r3]

					/* Run callback if registered and enabled */
					if (callback_status
    15a8:	07bb      	lsls	r3, r7, #30
    15aa:	d50b      	bpl.n	15c4 <_usart_interrupt_handler+0x14c>
							& (1 << USART_CALLBACK_BUFFER_RECEIVED)) {
						(*(module->callback[USART_CALLBACK_BUFFER_RECEIVED]))(module);
    15ac:	0028      	movs	r0, r5
    15ae:	692b      	ldr	r3, [r5, #16]
    15b0:	4798      	blx	r3
    15b2:	e007      	b.n	15c4 <_usart_interrupt_handler+0x14c>
					*(module->rx_buffer_ptr) = (received_data >> 8);
    15b4:	0a1b      	lsrs	r3, r3, #8
    15b6:	7053      	strb	r3, [r2, #1]
					module->rx_buffer_ptr += 1;
    15b8:	6a6b      	ldr	r3, [r5, #36]	; 0x24
    15ba:	3301      	adds	r3, #1
    15bc:	626b      	str	r3, [r5, #36]	; 0x24
    15be:	e7e8      	b.n	1592 <_usart_interrupt_handler+0x11a>
					}
				}
			}
		} else {
			/* This should not happen. Disable Receive Complete interrupt. */
			usart_hw->INTENCLR.reg = SERCOM_USART_INTFLAG_RXC;
    15c0:	2304      	movs	r3, #4
    15c2:	7523      	strb	r3, [r4, #20]
		}
	}

#ifdef FEATURE_USART_HARDWARE_FLOW_CONTROL
	if (interrupt_status & SERCOM_USART_INTFLAG_CTSIC) {
    15c4:	06f3      	lsls	r3, r6, #27
    15c6:	d504      	bpl.n	15d2 <_usart_interrupt_handler+0x15a>
		/* Disable interrupts */
		usart_hw->INTENCLR.reg = SERCOM_USART_INTENCLR_CTSIC;
    15c8:	2310      	movs	r3, #16
    15ca:	7523      	strb	r3, [r4, #20]
		/* Clear interrupt flag */
		usart_hw->INTFLAG.reg = SERCOM_USART_INTFLAG_CTSIC;
    15cc:	7623      	strb	r3, [r4, #24]

		/* Run callback if registered and enabled */
		if (callback_status & (1 << USART_CALLBACK_CTS_INPUT_CHANGE)) {
    15ce:	06fb      	lsls	r3, r7, #27
    15d0:	d40e      	bmi.n	15f0 <_usart_interrupt_handler+0x178>
		}
	}
#endif

#ifdef FEATURE_USART_LIN_SLAVE
	if (interrupt_status & SERCOM_USART_INTFLAG_RXBRK) {
    15d2:	06b3      	lsls	r3, r6, #26
    15d4:	d504      	bpl.n	15e0 <_usart_interrupt_handler+0x168>
		/* Disable interrupts */
		usart_hw->INTENCLR.reg = SERCOM_USART_INTENCLR_RXBRK;
    15d6:	2320      	movs	r3, #32
    15d8:	7523      	strb	r3, [r4, #20]
		/* Clear interrupt flag */
		usart_hw->INTFLAG.reg = SERCOM_USART_INTFLAG_RXBRK;
    15da:	7623      	strb	r3, [r4, #24]

		/* Run callback if registered and enabled */
		if (callback_status & (1 << USART_CALLBACK_BREAK_RECEIVED)) {
    15dc:	073b      	lsls	r3, r7, #28
    15de:	d40b      	bmi.n	15f8 <_usart_interrupt_handler+0x180>
		}
	}
#endif

#ifdef FEATURE_USART_START_FRAME_DECTION
	if (interrupt_status & SERCOM_USART_INTFLAG_RXS) {
    15e0:	0733      	lsls	r3, r6, #28
    15e2:	d504      	bpl.n	15ee <_usart_interrupt_handler+0x176>
		/* Disable interrupts */
		usart_hw->INTENCLR.reg = SERCOM_USART_INTENCLR_RXS;
    15e4:	2308      	movs	r3, #8
    15e6:	7523      	strb	r3, [r4, #20]
		/* Clear interrupt flag */
		usart_hw->INTFLAG.reg = SERCOM_USART_INTFLAG_RXS;
    15e8:	7623      	strb	r3, [r4, #24]

		/* Run callback if registered and enabled */
		if (callback_status & (1 << USART_CALLBACK_START_RECEIVED)) {
    15ea:	06bb      	lsls	r3, r7, #26
    15ec:	d408      	bmi.n	1600 <_usart_interrupt_handler+0x188>
			(*(module->callback[USART_CALLBACK_START_RECEIVED]))(module);
		}
	}
#endif
}
    15ee:	bdf8      	pop	{r3, r4, r5, r6, r7, pc}
			(*(module->callback[USART_CALLBACK_CTS_INPUT_CHANGE]))(module);
    15f0:	0028      	movs	r0, r5
    15f2:	69eb      	ldr	r3, [r5, #28]
    15f4:	4798      	blx	r3
    15f6:	e7ec      	b.n	15d2 <_usart_interrupt_handler+0x15a>
			(*(module->callback[USART_CALLBACK_BREAK_RECEIVED]))(module);
    15f8:	0028      	movs	r0, r5
    15fa:	69ab      	ldr	r3, [r5, #24]
    15fc:	4798      	blx	r3
    15fe:	e7ef      	b.n	15e0 <_usart_interrupt_handler+0x168>
			(*(module->callback[USART_CALLBACK_START_RECEIVED]))(module);
    1600:	6a2b      	ldr	r3, [r5, #32]
    1602:	0028      	movs	r0, r5
    1604:	4798      	blx	r3
}
    1606:	e7f2      	b.n	15ee <_usart_interrupt_handler+0x176>
    1608:	2000071c 	.word	0x2000071c

0000160c <system_clock_source_get_hz>:
 *
 * \returns Frequency of the given clock source, in Hz.
 */
uint32_t system_clock_source_get_hz(
		const enum system_clock_source clock_source)
{
    160c:	b510      	push	{r4, lr}
	switch (clock_source) {
    160e:	2808      	cmp	r0, #8
    1610:	d803      	bhi.n	161a <system_clock_source_get_hz+0xe>
    1612:	0080      	lsls	r0, r0, #2
    1614:	4b1c      	ldr	r3, [pc, #112]	; (1688 <system_clock_source_get_hz+0x7c>)
    1616:	581b      	ldr	r3, [r3, r0]
    1618:	469f      	mov	pc, r3

		return _system_clock_inst.dpll.frequency;
#endif

	default:
		return 0;
    161a:	2000      	movs	r0, #0
    161c:	e032      	b.n	1684 <system_clock_source_get_hz+0x78>
		return _system_clock_inst.xosc.frequency;
    161e:	4b1b      	ldr	r3, [pc, #108]	; (168c <system_clock_source_get_hz+0x80>)
    1620:	6918      	ldr	r0, [r3, #16]
    1622:	e02f      	b.n	1684 <system_clock_source_get_hz+0x78>
		return 8000000UL >> SYSCTRL->OSC8M.bit.PRESC;
    1624:	4b1a      	ldr	r3, [pc, #104]	; (1690 <system_clock_source_get_hz+0x84>)
    1626:	6a1b      	ldr	r3, [r3, #32]
    1628:	059b      	lsls	r3, r3, #22
    162a:	0f9b      	lsrs	r3, r3, #30
    162c:	4819      	ldr	r0, [pc, #100]	; (1694 <system_clock_source_get_hz+0x88>)
    162e:	40d8      	lsrs	r0, r3
    1630:	e028      	b.n	1684 <system_clock_source_get_hz+0x78>
		return _system_clock_inst.xosc32k.frequency;
    1632:	4b16      	ldr	r3, [pc, #88]	; (168c <system_clock_source_get_hz+0x80>)
    1634:	6958      	ldr	r0, [r3, #20]
    1636:	e025      	b.n	1684 <system_clock_source_get_hz+0x78>
		if (!(_system_clock_inst.dfll.control & SYSCTRL_DFLLCTRL_ENABLE))
    1638:	4b14      	ldr	r3, [pc, #80]	; (168c <system_clock_source_get_hz+0x80>)
    163a:	681b      	ldr	r3, [r3, #0]
			return 0;
    163c:	2000      	movs	r0, #0
		if (!(_system_clock_inst.dfll.control & SYSCTRL_DFLLCTRL_ENABLE))
    163e:	079b      	lsls	r3, r3, #30
    1640:	d520      	bpl.n	1684 <system_clock_source_get_hz+0x78>
	while (!(SYSCTRL->PCLKSR.reg & SYSCTRL_PCLKSR_DFLLRDY)) {
    1642:	4913      	ldr	r1, [pc, #76]	; (1690 <system_clock_source_get_hz+0x84>)
    1644:	2210      	movs	r2, #16
    1646:	68cb      	ldr	r3, [r1, #12]
    1648:	421a      	tst	r2, r3
    164a:	d0fc      	beq.n	1646 <system_clock_source_get_hz+0x3a>
		switch(_system_clock_inst.dfll.control &
    164c:	4b0f      	ldr	r3, [pc, #60]	; (168c <system_clock_source_get_hz+0x80>)
    164e:	681a      	ldr	r2, [r3, #0]
    1650:	2324      	movs	r3, #36	; 0x24
    1652:	4013      	ands	r3, r2
    1654:	2b04      	cmp	r3, #4
    1656:	d001      	beq.n	165c <system_clock_source_get_hz+0x50>
			return 48000000UL;
    1658:	480f      	ldr	r0, [pc, #60]	; (1698 <system_clock_source_get_hz+0x8c>)
    165a:	e013      	b.n	1684 <system_clock_source_get_hz+0x78>
			return system_gclk_chan_get_hz(SYSCTRL_GCLK_ID_DFLL48) *
    165c:	2000      	movs	r0, #0
    165e:	4b0f      	ldr	r3, [pc, #60]	; (169c <system_clock_source_get_hz+0x90>)
    1660:	4798      	blx	r3
					(_system_clock_inst.dfll.mul & 0xffff);
    1662:	4b0a      	ldr	r3, [pc, #40]	; (168c <system_clock_source_get_hz+0x80>)
    1664:	689b      	ldr	r3, [r3, #8]
    1666:	041b      	lsls	r3, r3, #16
    1668:	0c1b      	lsrs	r3, r3, #16
			return system_gclk_chan_get_hz(SYSCTRL_GCLK_ID_DFLL48) *
    166a:	4358      	muls	r0, r3
    166c:	e00a      	b.n	1684 <system_clock_source_get_hz+0x78>
		if (!(SYSCTRL->DPLLSTATUS.reg & SYSCTRL_DPLLSTATUS_ENABLE)) {
    166e:	2350      	movs	r3, #80	; 0x50
    1670:	4a07      	ldr	r2, [pc, #28]	; (1690 <system_clock_source_get_hz+0x84>)
    1672:	5cd3      	ldrb	r3, [r2, r3]
			return 0;
    1674:	2000      	movs	r0, #0
		if (!(SYSCTRL->DPLLSTATUS.reg & SYSCTRL_DPLLSTATUS_ENABLE)) {
    1676:	075b      	lsls	r3, r3, #29
    1678:	d504      	bpl.n	1684 <system_clock_source_get_hz+0x78>
		return _system_clock_inst.dpll.frequency;
    167a:	4b04      	ldr	r3, [pc, #16]	; (168c <system_clock_source_get_hz+0x80>)
    167c:	68d8      	ldr	r0, [r3, #12]
    167e:	e001      	b.n	1684 <system_clock_source_get_hz+0x78>
		return 32768UL;
    1680:	2080      	movs	r0, #128	; 0x80
    1682:	0200      	lsls	r0, r0, #8
	}
}
    1684:	bd10      	pop	{r4, pc}
    1686:	46c0      	nop			; (mov r8, r8)
    1688:	00004590 	.word	0x00004590
    168c:	200001b4 	.word	0x200001b4
    1690:	40000800 	.word	0x40000800
    1694:	007a1200 	.word	0x007a1200
    1698:	02dc6c00 	.word	0x02dc6c00
    169c:	00001c65 	.word	0x00001c65

000016a0 <system_clock_source_osc8m_set_config>:
 *
 * \param[in] config  OSC8M configuration structure containing the new config
 */
void system_clock_source_osc8m_set_config(
		struct system_clock_source_osc8m_config *const config)
{
    16a0:	b570      	push	{r4, r5, r6, lr}
	SYSCTRL_OSC8M_Type temp = SYSCTRL->OSC8M;
    16a2:	490c      	ldr	r1, [pc, #48]	; (16d4 <system_clock_source_osc8m_set_config+0x34>)
    16a4:	6a0b      	ldr	r3, [r1, #32]

	/* Use temporary struct to reduce register access */
	temp.bit.PRESC    = config->prescaler;
    16a6:	7804      	ldrb	r4, [r0, #0]
	temp.bit.ONDEMAND = config->on_demand;
    16a8:	7885      	ldrb	r5, [r0, #2]
	temp.bit.RUNSTDBY = config->run_in_standby;

	SYSCTRL->OSC8M = temp;
    16aa:	7840      	ldrb	r0, [r0, #1]
    16ac:	2201      	movs	r2, #1
    16ae:	4010      	ands	r0, r2
    16b0:	0180      	lsls	r0, r0, #6
    16b2:	2640      	movs	r6, #64	; 0x40
    16b4:	43b3      	bics	r3, r6
    16b6:	4303      	orrs	r3, r0
    16b8:	402a      	ands	r2, r5
    16ba:	01d2      	lsls	r2, r2, #7
    16bc:	2080      	movs	r0, #128	; 0x80
    16be:	4383      	bics	r3, r0
    16c0:	4313      	orrs	r3, r2
    16c2:	2203      	movs	r2, #3
    16c4:	4022      	ands	r2, r4
    16c6:	0212      	lsls	r2, r2, #8
    16c8:	4803      	ldr	r0, [pc, #12]	; (16d8 <system_clock_source_osc8m_set_config+0x38>)
    16ca:	4003      	ands	r3, r0
    16cc:	4313      	orrs	r3, r2
    16ce:	620b      	str	r3, [r1, #32]
}
    16d0:	bd70      	pop	{r4, r5, r6, pc}
    16d2:	46c0      	nop			; (mov r8, r8)
    16d4:	40000800 	.word	0x40000800
    16d8:	fffffcff 	.word	0xfffffcff

000016dc <system_clock_source_xosc32k_set_config>:
 *
 * \param[in] config  XOSC32K configuration structure containing the new config
 */
void system_clock_source_xosc32k_set_config(
		struct system_clock_source_xosc32k_config *const config)
{
    16dc:	b5f0      	push	{r4, r5, r6, r7, lr}
    16de:	46de      	mov	lr, fp
    16e0:	4657      	mov	r7, sl
    16e2:	464e      	mov	r6, r9
    16e4:	4645      	mov	r5, r8
    16e6:	b5e0      	push	{r5, r6, r7, lr}
    16e8:	0001      	movs	r1, r0
	SYSCTRL_XOSC32K_Type temp = SYSCTRL->XOSC32K;
    16ea:	4b26      	ldr	r3, [pc, #152]	; (1784 <system_clock_source_xosc32k_set_config+0xa8>)
    16ec:	469b      	mov	fp, r3
    16ee:	8a9b      	ldrh	r3, [r3, #20]

	temp.bit.STARTUP = config->startup_time;
    16f0:	7845      	ldrb	r5, [r0, #1]

	if (config->external_clock == SYSTEM_CLOCK_EXTERNAL_CRYSTAL) {
    16f2:	7800      	ldrb	r0, [r0, #0]
    16f4:	4242      	negs	r2, r0
    16f6:	4142      	adcs	r2, r0
    16f8:	4691      	mov	r9, r2
		temp.bit.XTALEN = 1;
	} else {
		temp.bit.XTALEN = 0;
	}

	temp.bit.AAMPEN = config->auto_gain_control;
    16fa:	7888      	ldrb	r0, [r1, #2]
	temp.bit.EN1K = config->enable_1khz_output;
    16fc:	78ca      	ldrb	r2, [r1, #3]
    16fe:	4694      	mov	ip, r2
	temp.bit.EN32K = config->enable_32khz_output;
    1700:	790a      	ldrb	r2, [r1, #4]
    1702:	4690      	mov	r8, r2

	temp.bit.ONDEMAND = config->on_demand;
    1704:	7b4e      	ldrb	r6, [r1, #13]
	temp.bit.RUNSTDBY = config->run_in_standby;
    1706:	7b0f      	ldrb	r7, [r1, #12]
	temp.bit.WRTLOCK  = config->write_once;
    1708:	7b8c      	ldrb	r4, [r1, #14]

	/* Cache the new frequency in case the user needs to check the current
	 * operating frequency later */
	_system_clock_inst.xosc32k.frequency = config->frequency;
    170a:	688a      	ldr	r2, [r1, #8]
    170c:	491e      	ldr	r1, [pc, #120]	; (1788 <system_clock_source_xosc32k_set_config+0xac>)
    170e:	614a      	str	r2, [r1, #20]

	SYSCTRL->XOSC32K = temp;
    1710:	2101      	movs	r1, #1
    1712:	464a      	mov	r2, r9
    1714:	0092      	lsls	r2, r2, #2
    1716:	4691      	mov	r9, r2
    1718:	2204      	movs	r2, #4
    171a:	4393      	bics	r3, r2
    171c:	464a      	mov	r2, r9
    171e:	4313      	orrs	r3, r2
    1720:	4642      	mov	r2, r8
    1722:	400a      	ands	r2, r1
    1724:	00d2      	lsls	r2, r2, #3
    1726:	4690      	mov	r8, r2
    1728:	2208      	movs	r2, #8
    172a:	4393      	bics	r3, r2
    172c:	4642      	mov	r2, r8
    172e:	4313      	orrs	r3, r2
    1730:	4662      	mov	r2, ip
    1732:	400a      	ands	r2, r1
    1734:	0112      	lsls	r2, r2, #4
    1736:	4694      	mov	ip, r2
    1738:	2210      	movs	r2, #16
    173a:	4393      	bics	r3, r2
    173c:	4662      	mov	r2, ip
    173e:	4313      	orrs	r3, r2
    1740:	4008      	ands	r0, r1
    1742:	0140      	lsls	r0, r0, #5
    1744:	2220      	movs	r2, #32
    1746:	4393      	bics	r3, r2
    1748:	4303      	orrs	r3, r0
    174a:	400f      	ands	r7, r1
    174c:	01bf      	lsls	r7, r7, #6
    174e:	2040      	movs	r0, #64	; 0x40
    1750:	4383      	bics	r3, r0
    1752:	433b      	orrs	r3, r7
    1754:	400e      	ands	r6, r1
    1756:	01f6      	lsls	r6, r6, #7
    1758:	3040      	adds	r0, #64	; 0x40
    175a:	4383      	bics	r3, r0
    175c:	4333      	orrs	r3, r6
    175e:	3879      	subs	r0, #121	; 0x79
    1760:	4005      	ands	r5, r0
    1762:	022d      	lsls	r5, r5, #8
    1764:	4809      	ldr	r0, [pc, #36]	; (178c <system_clock_source_xosc32k_set_config+0xb0>)
    1766:	4003      	ands	r3, r0
    1768:	432b      	orrs	r3, r5
    176a:	4021      	ands	r1, r4
    176c:	0309      	lsls	r1, r1, #12
    176e:	4808      	ldr	r0, [pc, #32]	; (1790 <system_clock_source_xosc32k_set_config+0xb4>)
    1770:	4003      	ands	r3, r0
    1772:	430b      	orrs	r3, r1
    1774:	465a      	mov	r2, fp
    1776:	8293      	strh	r3, [r2, #20]
}
    1778:	bc3c      	pop	{r2, r3, r4, r5}
    177a:	4690      	mov	r8, r2
    177c:	4699      	mov	r9, r3
    177e:	46a2      	mov	sl, r4
    1780:	46ab      	mov	fp, r5
    1782:	bdf0      	pop	{r4, r5, r6, r7, pc}
    1784:	40000800 	.word	0x40000800
    1788:	200001b4 	.word	0x200001b4
    178c:	fffff8ff 	.word	0xfffff8ff
    1790:	ffffefff 	.word	0xffffefff

00001794 <system_clock_source_dfll_set_config>:
 *
 * \param[in] config  DFLL configuration structure containing the new config
 */
void system_clock_source_dfll_set_config(
		struct system_clock_source_dfll_config *const config)
{
    1794:	b510      	push	{r4, lr}
	_system_clock_inst.dfll.val =
			SYSCTRL_DFLLVAL_COARSE(config->coarse_value) |
    1796:	7a03      	ldrb	r3, [r0, #8]
    1798:	069b      	lsls	r3, r3, #26
    179a:	0c1b      	lsrs	r3, r3, #16
			SYSCTRL_DFLLVAL_FINE(config->fine_value);
    179c:	8942      	ldrh	r2, [r0, #10]
    179e:	0592      	lsls	r2, r2, #22
    17a0:	0d92      	lsrs	r2, r2, #22
			SYSCTRL_DFLLVAL_COARSE(config->coarse_value) |
    17a2:	4313      	orrs	r3, r2
	_system_clock_inst.dfll.val =
    17a4:	4918      	ldr	r1, [pc, #96]	; (1808 <system_clock_source_dfll_set_config+0x74>)
    17a6:	604b      	str	r3, [r1, #4]

	_system_clock_inst.dfll.control =
			(uint32_t)config->wakeup_lock     |
    17a8:	7983      	ldrb	r3, [r0, #6]
    17aa:	79c2      	ldrb	r2, [r0, #7]
    17ac:	4313      	orrs	r3, r2
			(uint32_t)config->stable_tracking |
			(uint32_t)config->quick_lock      |
    17ae:	8842      	ldrh	r2, [r0, #2]
    17b0:	8884      	ldrh	r4, [r0, #4]
    17b2:	4322      	orrs	r2, r4
    17b4:	4313      	orrs	r3, r2
			(uint32_t)config->chill_cycle     |
			((uint32_t)config->on_demand << SYSCTRL_DFLLCTRL_ONDEMAND_Pos);
    17b6:	7842      	ldrb	r2, [r0, #1]
    17b8:	01d2      	lsls	r2, r2, #7
			(uint32_t)config->chill_cycle     |
    17ba:	4313      	orrs	r3, r2
	_system_clock_inst.dfll.control =
    17bc:	600b      	str	r3, [r1, #0]

	if (config->loop_mode == SYSTEM_CLOCK_DFLL_LOOP_MODE_CLOSED) {
    17be:	7803      	ldrb	r3, [r0, #0]
    17c0:	2b04      	cmp	r3, #4
    17c2:	d011      	beq.n	17e8 <system_clock_source_dfll_set_config+0x54>
				SYSCTRL_DFLLMUL_MUL(config->multiply_factor);

		/* Enable the closed loop mode */
		_system_clock_inst.dfll.control |= config->loop_mode;
	}
	if (config->loop_mode == SYSTEM_CLOCK_DFLL_LOOP_MODE_USB_RECOVERY) {
    17c4:	2b20      	cmp	r3, #32
    17c6:	d10e      	bne.n	17e6 <system_clock_source_dfll_set_config+0x52>

		_system_clock_inst.dfll.mul =
				SYSCTRL_DFLLMUL_CSTEP(config->coarse_max_step) |
    17c8:	7b03      	ldrb	r3, [r0, #12]
    17ca:	069b      	lsls	r3, r3, #26
				SYSCTRL_DFLLMUL_FSTEP(config->fine_max_step)   |
				SYSCTRL_DFLLMUL_MUL(config->multiply_factor);
    17cc:	8a02      	ldrh	r2, [r0, #16]
				SYSCTRL_DFLLMUL_FSTEP(config->fine_max_step)   |
    17ce:	4313      	orrs	r3, r2
    17d0:	89c2      	ldrh	r2, [r0, #14]
    17d2:	0412      	lsls	r2, r2, #16
    17d4:	490d      	ldr	r1, [pc, #52]	; (180c <system_clock_source_dfll_set_config+0x78>)
    17d6:	400a      	ands	r2, r1
    17d8:	4313      	orrs	r3, r2
		_system_clock_inst.dfll.mul =
    17da:	4a0b      	ldr	r2, [pc, #44]	; (1808 <system_clock_source_dfll_set_config+0x74>)
    17dc:	6093      	str	r3, [r2, #8]

		/* Enable the USB recovery mode */
		_system_clock_inst.dfll.control |= config->loop_mode |
    17de:	6811      	ldr	r1, [r2, #0]
    17e0:	4b0b      	ldr	r3, [pc, #44]	; (1810 <system_clock_source_dfll_set_config+0x7c>)
    17e2:	430b      	orrs	r3, r1
    17e4:	6013      	str	r3, [r2, #0]
				SYSCTRL_DFLLCTRL_MODE | SYSCTRL_DFLLCTRL_BPLCKC;
	}
}
    17e6:	bd10      	pop	{r4, pc}
				SYSCTRL_DFLLMUL_CSTEP(config->coarse_max_step) |
    17e8:	7b03      	ldrb	r3, [r0, #12]
    17ea:	069b      	lsls	r3, r3, #26
				SYSCTRL_DFLLMUL_MUL(config->multiply_factor);
    17ec:	8a02      	ldrh	r2, [r0, #16]
				SYSCTRL_DFLLMUL_FSTEP(config->fine_max_step)   |
    17ee:	4313      	orrs	r3, r2
    17f0:	89c2      	ldrh	r2, [r0, #14]
    17f2:	0412      	lsls	r2, r2, #16
    17f4:	4905      	ldr	r1, [pc, #20]	; (180c <system_clock_source_dfll_set_config+0x78>)
    17f6:	400a      	ands	r2, r1
    17f8:	4313      	orrs	r3, r2
		_system_clock_inst.dfll.mul =
    17fa:	4a03      	ldr	r2, [pc, #12]	; (1808 <system_clock_source_dfll_set_config+0x74>)
    17fc:	6093      	str	r3, [r2, #8]
		_system_clock_inst.dfll.control |= config->loop_mode;
    17fe:	6813      	ldr	r3, [r2, #0]
    1800:	2104      	movs	r1, #4
    1802:	430b      	orrs	r3, r1
    1804:	6013      	str	r3, [r2, #0]
    1806:	e7ee      	b.n	17e6 <system_clock_source_dfll_set_config+0x52>
    1808:	200001b4 	.word	0x200001b4
    180c:	03ff0000 	.word	0x03ff0000
    1810:	00000424 	.word	0x00000424

00001814 <system_clock_source_enable>:
 *                                 device
 */
enum status_code system_clock_source_enable(
		const enum system_clock_source clock_source)
{
	switch (clock_source) {
    1814:	2808      	cmp	r0, #8
    1816:	d803      	bhi.n	1820 <system_clock_source_enable+0xc>
    1818:	0080      	lsls	r0, r0, #2
    181a:	4b25      	ldr	r3, [pc, #148]	; (18b0 <system_clock_source_enable+0x9c>)
    181c:	581b      	ldr	r3, [r3, r0]
    181e:	469f      	mov	pc, r3
		/* Always enabled */
		return STATUS_OK;

	default:
		Assert(false);
		return STATUS_ERR_INVALID_ARG;
    1820:	2017      	movs	r0, #23
    1822:	e044      	b.n	18ae <system_clock_source_enable+0x9a>
		SYSCTRL->OSC8M.reg |= SYSCTRL_OSC8M_ENABLE;
    1824:	4a23      	ldr	r2, [pc, #140]	; (18b4 <system_clock_source_enable+0xa0>)
    1826:	6a13      	ldr	r3, [r2, #32]
    1828:	2102      	movs	r1, #2
    182a:	430b      	orrs	r3, r1
    182c:	6213      	str	r3, [r2, #32]
		return STATUS_OK;
    182e:	2000      	movs	r0, #0
    1830:	e03d      	b.n	18ae <system_clock_source_enable+0x9a>
		SYSCTRL->OSC32K.reg |= SYSCTRL_OSC32K_ENABLE;
    1832:	4a20      	ldr	r2, [pc, #128]	; (18b4 <system_clock_source_enable+0xa0>)
    1834:	6993      	ldr	r3, [r2, #24]
    1836:	2102      	movs	r1, #2
    1838:	430b      	orrs	r3, r1
    183a:	6193      	str	r3, [r2, #24]
	}

	return STATUS_OK;
    183c:	2000      	movs	r0, #0
		break;
    183e:	e036      	b.n	18ae <system_clock_source_enable+0x9a>
		SYSCTRL->XOSC.reg |= SYSCTRL_XOSC_ENABLE;
    1840:	4a1c      	ldr	r2, [pc, #112]	; (18b4 <system_clock_source_enable+0xa0>)
    1842:	8a13      	ldrh	r3, [r2, #16]
    1844:	2102      	movs	r1, #2
    1846:	430b      	orrs	r3, r1
    1848:	8213      	strh	r3, [r2, #16]
	return STATUS_OK;
    184a:	2000      	movs	r0, #0
		break;
    184c:	e02f      	b.n	18ae <system_clock_source_enable+0x9a>
		SYSCTRL->XOSC32K.reg |= SYSCTRL_XOSC32K_ENABLE;
    184e:	4a19      	ldr	r2, [pc, #100]	; (18b4 <system_clock_source_enable+0xa0>)
    1850:	8a93      	ldrh	r3, [r2, #20]
    1852:	2102      	movs	r1, #2
    1854:	430b      	orrs	r3, r1
    1856:	8293      	strh	r3, [r2, #20]
	return STATUS_OK;
    1858:	2000      	movs	r0, #0
		break;
    185a:	e028      	b.n	18ae <system_clock_source_enable+0x9a>
		_system_clock_inst.dfll.control |= SYSCTRL_DFLLCTRL_ENABLE;
    185c:	4916      	ldr	r1, [pc, #88]	; (18b8 <system_clock_source_enable+0xa4>)
    185e:	680b      	ldr	r3, [r1, #0]
    1860:	2202      	movs	r2, #2
    1862:	4313      	orrs	r3, r2
    1864:	600b      	str	r3, [r1, #0]
	SYSCTRL->DFLLCTRL.reg = SYSCTRL_DFLLCTRL_ENABLE;
    1866:	4b13      	ldr	r3, [pc, #76]	; (18b4 <system_clock_source_enable+0xa0>)
    1868:	849a      	strh	r2, [r3, #36]	; 0x24
	while (!(SYSCTRL->PCLKSR.reg & SYSCTRL_PCLKSR_DFLLRDY)) {
    186a:	0019      	movs	r1, r3
    186c:	320e      	adds	r2, #14
    186e:	68cb      	ldr	r3, [r1, #12]
    1870:	421a      	tst	r2, r3
    1872:	d0fc      	beq.n	186e <system_clock_source_enable+0x5a>
	SYSCTRL->DFLLMUL.reg = _system_clock_inst.dfll.mul;
    1874:	4a10      	ldr	r2, [pc, #64]	; (18b8 <system_clock_source_enable+0xa4>)
    1876:	6891      	ldr	r1, [r2, #8]
    1878:	4b0e      	ldr	r3, [pc, #56]	; (18b4 <system_clock_source_enable+0xa0>)
    187a:	62d9      	str	r1, [r3, #44]	; 0x2c
	SYSCTRL->DFLLVAL.reg = _system_clock_inst.dfll.val;
    187c:	6852      	ldr	r2, [r2, #4]
    187e:	629a      	str	r2, [r3, #40]	; 0x28
	SYSCTRL->DFLLCTRL.reg = 0;
    1880:	2200      	movs	r2, #0
    1882:	849a      	strh	r2, [r3, #36]	; 0x24
	while (!(SYSCTRL->PCLKSR.reg & SYSCTRL_PCLKSR_DFLLRDY)) {
    1884:	0019      	movs	r1, r3
    1886:	3210      	adds	r2, #16
    1888:	68cb      	ldr	r3, [r1, #12]
    188a:	421a      	tst	r2, r3
    188c:	d0fc      	beq.n	1888 <system_clock_source_enable+0x74>
	SYSCTRL->DFLLCTRL.reg = _system_clock_inst.dfll.control;
    188e:	4b0a      	ldr	r3, [pc, #40]	; (18b8 <system_clock_source_enable+0xa4>)
    1890:	681b      	ldr	r3, [r3, #0]
    1892:	b29b      	uxth	r3, r3
    1894:	4a07      	ldr	r2, [pc, #28]	; (18b4 <system_clock_source_enable+0xa0>)
    1896:	8493      	strh	r3, [r2, #36]	; 0x24
	return STATUS_OK;
    1898:	2000      	movs	r0, #0
    189a:	e008      	b.n	18ae <system_clock_source_enable+0x9a>
		SYSCTRL->DPLLCTRLA.reg |= SYSCTRL_DPLLCTRLA_ENABLE;
    189c:	4905      	ldr	r1, [pc, #20]	; (18b4 <system_clock_source_enable+0xa0>)
    189e:	2244      	movs	r2, #68	; 0x44
    18a0:	5c8b      	ldrb	r3, [r1, r2]
    18a2:	2002      	movs	r0, #2
    18a4:	4303      	orrs	r3, r0
    18a6:	548b      	strb	r3, [r1, r2]
	return STATUS_OK;
    18a8:	2000      	movs	r0, #0
		break;
    18aa:	e000      	b.n	18ae <system_clock_source_enable+0x9a>
		return STATUS_OK;
    18ac:	2000      	movs	r0, #0
}
    18ae:	4770      	bx	lr
    18b0:	000045b4 	.word	0x000045b4
    18b4:	40000800 	.word	0x40000800
    18b8:	200001b4 	.word	0x200001b4

000018bc <system_clock_init>:
 * \note OSC8M is always enabled and if user selects other clocks for GCLK generators,
 * the OSC8M default enable can be disabled after system_clock_init. Make sure the
 * clock switch successfully before disabling OSC8M.
 */
void system_clock_init(void)
{
    18bc:	b5f0      	push	{r4, r5, r6, r7, lr}
    18be:	b08f      	sub	sp, #60	; 0x3c
	/* Various bits in the INTFLAG register can be set to one at startup.
	   This will ensure that these bits are cleared */
	SYSCTRL->INTFLAG.reg = SYSCTRL_INTFLAG_BOD33RDY | SYSCTRL_INTFLAG_BOD33DET |
    18c0:	22c2      	movs	r2, #194	; 0xc2
    18c2:	00d2      	lsls	r2, r2, #3
    18c4:	4b45      	ldr	r3, [pc, #276]	; (19dc <system_clock_init+0x120>)
    18c6:	609a      	str	r2, [r3, #8]
static inline void system_flash_set_waitstates(uint8_t wait_states)
{
	Assert(NVMCTRL_CTRLB_RWS((uint32_t)wait_states) ==
			((uint32_t)wait_states << NVMCTRL_CTRLB_RWS_Pos));

	NVMCTRL->CTRLB.bit.RWS = wait_states;
    18c8:	4a45      	ldr	r2, [pc, #276]	; (19e0 <system_clock_init+0x124>)
    18ca:	6853      	ldr	r3, [r2, #4]
    18cc:	211e      	movs	r1, #30
    18ce:	438b      	bics	r3, r1
    18d0:	391a      	subs	r1, #26
    18d2:	430b      	orrs	r3, r1
    18d4:	6053      	str	r3, [r2, #4]
	gclk_conf.source_generator = GCLK_GENERATOR_2;
    18d6:	2202      	movs	r2, #2
    18d8:	ab01      	add	r3, sp, #4
    18da:	701a      	strb	r2, [r3, #0]
	for (gclk_id = 0; gclk_id < GCLK_NUM; gclk_id++) {
    18dc:	2400      	movs	r4, #0
		system_gclk_chan_set_config(gclk_id, &gclk_conf);
    18de:	4d41      	ldr	r5, [pc, #260]	; (19e4 <system_clock_init+0x128>)
    18e0:	b2e0      	uxtb	r0, r4
    18e2:	a901      	add	r1, sp, #4
    18e4:	47a8      	blx	r5
	for (gclk_id = 0; gclk_id < GCLK_NUM; gclk_id++) {
    18e6:	3401      	adds	r4, #1
    18e8:	2c25      	cmp	r4, #37	; 0x25
    18ea:	d1f9      	bne.n	18e0 <system_clock_init+0x24>
	config->external_clock      = SYSTEM_CLOCK_EXTERNAL_CRYSTAL;
    18ec:	a80a      	add	r0, sp, #40	; 0x28
    18ee:	2300      	movs	r3, #0
    18f0:	7003      	strb	r3, [r0, #0]
	config->auto_gain_control   = false;
    18f2:	7083      	strb	r3, [r0, #2]
	config->frequency           = 32768UL;
    18f4:	2280      	movs	r2, #128	; 0x80
    18f6:	0212      	lsls	r2, r2, #8
    18f8:	6082      	str	r2, [r0, #8]
	config->enable_1khz_output  = false;
    18fa:	70c3      	strb	r3, [r0, #3]
	config->enable_32khz_output = true;
    18fc:	2201      	movs	r2, #1
    18fe:	7102      	strb	r2, [r0, #4]
	config->write_once          = false;
    1900:	7383      	strb	r3, [r0, #14]
	struct system_clock_source_xosc32k_config xosc32k_conf;
	system_clock_source_xosc32k_get_config_defaults(&xosc32k_conf);

	xosc32k_conf.frequency           = 32768UL;
	xosc32k_conf.external_clock      = CONF_CLOCK_XOSC32K_EXTERNAL_CRYSTAL;
	xosc32k_conf.startup_time        = CONF_CLOCK_XOSC32K_STARTUP_TIME;
    1902:	2106      	movs	r1, #6
    1904:	7041      	strb	r1, [r0, #1]
	xosc32k_conf.auto_gain_control   = CONF_CLOCK_XOSC32K_AUTO_AMPLITUDE_CONTROL;
	xosc32k_conf.enable_1khz_output  = CONF_CLOCK_XOSC32K_ENABLE_1KHZ_OUPUT;
	xosc32k_conf.enable_32khz_output = CONF_CLOCK_XOSC32K_ENABLE_32KHZ_OUTPUT;
	xosc32k_conf.on_demand           = false;
    1906:	7343      	strb	r3, [r0, #13]
	xosc32k_conf.run_in_standby      = CONF_CLOCK_XOSC32K_RUN_IN_STANDBY;
    1908:	7302      	strb	r2, [r0, #12]

	system_clock_source_xosc32k_set_config(&xosc32k_conf);
    190a:	4b37      	ldr	r3, [pc, #220]	; (19e8 <system_clock_init+0x12c>)
    190c:	4798      	blx	r3
	system_clock_source_enable(SYSTEM_CLOCK_SOURCE_XOSC32K);
    190e:	2005      	movs	r0, #5
    1910:	4b36      	ldr	r3, [pc, #216]	; (19ec <system_clock_init+0x130>)
    1912:	4798      	blx	r3
	return ((SYSCTRL->PCLKSR.reg & mask) == mask);
    1914:	4931      	ldr	r1, [pc, #196]	; (19dc <system_clock_init+0x120>)
    1916:	2202      	movs	r2, #2
    1918:	68cb      	ldr	r3, [r1, #12]
	while(!system_clock_source_is_ready(SYSTEM_CLOCK_SOURCE_XOSC32K));
    191a:	421a      	tst	r2, r3
    191c:	d0fc      	beq.n	1918 <system_clock_init+0x5c>
	config->quick_lock      = SYSTEM_CLOCK_DFLL_QUICK_LOCK_ENABLE;
    191e:	ab05      	add	r3, sp, #20
    1920:	2100      	movs	r1, #0
    1922:	2200      	movs	r2, #0
    1924:	8059      	strh	r1, [r3, #2]
	config->chill_cycle     = SYSTEM_CLOCK_DFLL_CHILL_CYCLE_ENABLE;
    1926:	8099      	strh	r1, [r3, #4]
	config->wakeup_lock     = SYSTEM_CLOCK_DFLL_WAKEUP_LOCK_KEEP;
    1928:	719a      	strb	r2, [r3, #6]
	config->stable_tracking = SYSTEM_CLOCK_DFLL_STABLE_TRACKING_TRACK_AFTER_LOCK;
    192a:	71da      	strb	r2, [r3, #7]
	config->fine_value      = 0xff / 4; /* Midpoint */
    192c:	313f      	adds	r1, #63	; 0x3f
    192e:	8159      	strh	r1, [r3, #10]
	/* DFLL Config (Open and Closed Loop) */
#if CONF_CLOCK_DFLL_ENABLE == true
	struct system_clock_source_dfll_config dfll_conf;
	system_clock_source_dfll_get_config_defaults(&dfll_conf);

	dfll_conf.loop_mode      = CONF_CLOCK_DFLL_LOOP_MODE;
    1930:	393b      	subs	r1, #59	; 0x3b
    1932:	7019      	strb	r1, [r3, #0]
	dfll_conf.on_demand      = false;
    1934:	705a      	strb	r2, [r3, #1]
	/* Using DFLL48M COARSE CAL value from NVM Software Calibration Area Mapping
	   in DFLL.COARSE helps to output a frequency close to 48 MHz.*/
#define NVM_DFLL_COARSE_POS    58 /* DFLL48M Coarse calibration value bit position.*/
#define NVM_DFLL_COARSE_SIZE   6  /* DFLL48M Coarse calibration value bit size.*/

	uint32_t coarse =( *((uint32_t *)(NVMCTRL_OTP4)
    1936:	4b2e      	ldr	r3, [pc, #184]	; (19f0 <system_clock_init+0x134>)
    1938:	681b      	ldr	r3, [r3, #0]
    193a:	0e9b      	lsrs	r3, r3, #26
			+ (NVM_DFLL_COARSE_POS / 32))
		>> (NVM_DFLL_COARSE_POS % 32))
		& ((1 << NVM_DFLL_COARSE_SIZE) - 1);
	/* In some revision chip, the coarse calibration value is not correct. */
	if (coarse == 0x3f) {
    193c:	2b3f      	cmp	r3, #63	; 0x3f
    193e:	d04b      	beq.n	19d8 <system_clock_init+0x11c>
		coarse = 0x1f;
	}
	dfll_conf.coarse_value = coarse;
    1940:	a805      	add	r0, sp, #20
    1942:	7203      	strb	r3, [r0, #8]
#  else
	dfll_conf.chill_cycle = SYSTEM_CLOCK_DFLL_CHILL_CYCLE_DISABLE;
#  endif

	if (CONF_CLOCK_DFLL_LOOP_MODE == SYSTEM_CLOCK_DFLL_LOOP_MODE_CLOSED) {
		dfll_conf.multiply_factor = CONF_CLOCK_DFLL_MULTIPLY_FACTOR;
    1944:	23b7      	movs	r3, #183	; 0xb7
    1946:	00db      	lsls	r3, r3, #3
    1948:	8203      	strh	r3, [r0, #16]
	}

	dfll_conf.coarse_max_step = CONF_CLOCK_DFLL_MAX_COARSE_STEP_SIZE;
    194a:	2303      	movs	r3, #3
    194c:	7303      	strb	r3, [r0, #12]
	dfll_conf.fine_max_step   = CONF_CLOCK_DFLL_MAX_FINE_STEP_SIZE;
    194e:	331c      	adds	r3, #28
    1950:	81c3      	strh	r3, [r0, #14]
		dfll_conf.chill_cycle = SYSTEM_CLOCK_DFLL_CHILL_CYCLE_DISABLE;

		dfll_conf.multiply_factor = 48000;
	}

	system_clock_source_dfll_set_config(&dfll_conf);
    1952:	4b28      	ldr	r3, [pc, #160]	; (19f4 <system_clock_init+0x138>)
    1954:	4798      	blx	r3
	config->on_demand       = true;
    1956:	a804      	add	r0, sp, #16
    1958:	2501      	movs	r5, #1
    195a:	7085      	strb	r5, [r0, #2]

	/* OSC8M */
	struct system_clock_source_osc8m_config osc8m_conf;
	system_clock_source_osc8m_get_config_defaults(&osc8m_conf);

	osc8m_conf.prescaler       = CONF_CLOCK_OSC8M_PRESCALER;
    195c:	2600      	movs	r6, #0
    195e:	7006      	strb	r6, [r0, #0]
	osc8m_conf.on_demand       = CONF_CLOCK_OSC8M_ON_DEMAND;
	osc8m_conf.run_in_standby  = CONF_CLOCK_OSC8M_RUN_IN_STANDBY;
    1960:	7045      	strb	r5, [r0, #1]

	system_clock_source_osc8m_set_config(&osc8m_conf);
    1962:	4b25      	ldr	r3, [pc, #148]	; (19f8 <system_clock_init+0x13c>)
    1964:	4798      	blx	r3
	system_clock_source_enable(SYSTEM_CLOCK_SOURCE_OSC8M);
    1966:	2006      	movs	r0, #6
    1968:	4f20      	ldr	r7, [pc, #128]	; (19ec <system_clock_init+0x130>)
    196a:	47b8      	blx	r7


	/* GCLK */
#if CONF_CLOCK_CONFIGURE_GCLK == true
	system_gclk_init();
    196c:	4b23      	ldr	r3, [pc, #140]	; (19fc <system_clock_init+0x140>)
    196e:	4798      	blx	r3
{
	/* Sanity check arguments */
	Assert(config);

	/* Default configuration values */
	config->division_factor    = 1;
    1970:	ac01      	add	r4, sp, #4
    1972:	9502      	str	r5, [sp, #8]
	config->high_when_disabled = false;
    1974:	7066      	strb	r6, [r4, #1]
#elif (SAMC20) || (SAMC21)
	config->source_clock       = GCLK_SOURCE_OSC48M;
#else
	config->source_clock       = GCLK_SOURCE_OSC8M;
#endif
	config->run_in_standby     = false;
    1976:	7226      	strb	r6, [r4, #8]
	config->output_enable      = false;
    1978:	7266      	strb	r6, [r4, #9]

	/* Configure all GCLK generators except for the main generator, which
	 * is configured later after all other clock systems are set up */
	MREPEAT(GCLK_GEN_NUM, _CONF_CLOCK_GCLK_CONFIG_NONMAIN, ~);
    197a:	2305      	movs	r3, #5
    197c:	7023      	strb	r3, [r4, #0]
    197e:	0021      	movs	r1, r4
    1980:	2001      	movs	r0, #1
    1982:	4b1f      	ldr	r3, [pc, #124]	; (1a00 <system_clock_init+0x144>)
    1984:	4798      	blx	r3
    1986:	2001      	movs	r0, #1
    1988:	4b1e      	ldr	r3, [pc, #120]	; (1a04 <system_clock_init+0x148>)
    198a:	4798      	blx	r3
	/* Enable DFLL reference clock if in closed loop mode */
	if (CONF_CLOCK_DFLL_LOOP_MODE == SYSTEM_CLOCK_DFLL_LOOP_MODE_CLOSED) {
		struct system_gclk_chan_config dfll_gclk_chan_conf;

		system_gclk_chan_get_config_defaults(&dfll_gclk_chan_conf);
		dfll_gclk_chan_conf.source_generator = CONF_CLOCK_DFLL_SOURCE_GCLK_GENERATOR;
    198c:	7025      	strb	r5, [r4, #0]
		system_gclk_chan_set_config(SYSCTRL_GCLK_ID_DFLL48, &dfll_gclk_chan_conf);
    198e:	0021      	movs	r1, r4
    1990:	2000      	movs	r0, #0
    1992:	4b14      	ldr	r3, [pc, #80]	; (19e4 <system_clock_init+0x128>)
    1994:	4798      	blx	r3
		system_gclk_chan_enable(SYSCTRL_GCLK_ID_DFLL48);
    1996:	2000      	movs	r0, #0
    1998:	4b1b      	ldr	r3, [pc, #108]	; (1a08 <system_clock_init+0x14c>)
    199a:	4798      	blx	r3
#endif


	/* DFLL Enable (Open and Closed Loop) */
#if CONF_CLOCK_DFLL_ENABLE == true
	system_clock_source_enable(SYSTEM_CLOCK_SOURCE_DFLL);
    199c:	2007      	movs	r0, #7
    199e:	47b8      	blx	r7
	return ((SYSCTRL->PCLKSR.reg & mask) == mask);
    19a0:	490e      	ldr	r1, [pc, #56]	; (19dc <system_clock_init+0x120>)
    19a2:	22d0      	movs	r2, #208	; 0xd0
    19a4:	68cb      	ldr	r3, [r1, #12]
    19a6:	4013      	ands	r3, r2
	while(!system_clock_source_is_ready(SYSTEM_CLOCK_SOURCE_DFLL));
    19a8:	2bd0      	cmp	r3, #208	; 0xd0
    19aa:	d1fb      	bne.n	19a4 <system_clock_init+0xe8>
	PM->CPUSEL.reg = (uint32_t)divider;
    19ac:	4a17      	ldr	r2, [pc, #92]	; (1a0c <system_clock_init+0x150>)
    19ae:	2300      	movs	r3, #0
    19b0:	7213      	strb	r3, [r2, #8]
			PM->APBASEL.reg = (uint32_t)divider;
    19b2:	7253      	strb	r3, [r2, #9]
			PM->APBBSEL.reg = (uint32_t)divider;
    19b4:	7293      	strb	r3, [r2, #10]
			PM->APBCSEL.reg = (uint32_t)divider;
    19b6:	72d3      	strb	r3, [r2, #11]
	config->division_factor    = 1;
    19b8:	a901      	add	r1, sp, #4
    19ba:	2201      	movs	r2, #1
    19bc:	604a      	str	r2, [r1, #4]
	config->high_when_disabled = false;
    19be:	704b      	strb	r3, [r1, #1]
	config->output_enable      = false;
    19c0:	724b      	strb	r3, [r1, #9]
	system_apb_clock_set_divider(SYSTEM_CLOCK_APB_APBC, CONF_CLOCK_APBC_DIVIDER);

	/* GCLK 0 */
#if CONF_CLOCK_CONFIGURE_GCLK == true
	/* Configure the main GCLK last as it might depend on other generators */
	_CONF_CLOCK_GCLK_CONFIG(0, ~);
    19c2:	3307      	adds	r3, #7
    19c4:	700b      	strb	r3, [r1, #0]
    19c6:	720a      	strb	r2, [r1, #8]
    19c8:	2000      	movs	r0, #0
    19ca:	4b0d      	ldr	r3, [pc, #52]	; (1a00 <system_clock_init+0x144>)
    19cc:	4798      	blx	r3
    19ce:	2000      	movs	r0, #0
    19d0:	4b0c      	ldr	r3, [pc, #48]	; (1a04 <system_clock_init+0x148>)
    19d2:	4798      	blx	r3
#endif
}
    19d4:	b00f      	add	sp, #60	; 0x3c
    19d6:	bdf0      	pop	{r4, r5, r6, r7, pc}
		coarse = 0x1f;
    19d8:	3b20      	subs	r3, #32
    19da:	e7b1      	b.n	1940 <system_clock_init+0x84>
    19dc:	40000800 	.word	0x40000800
    19e0:	41004000 	.word	0x41004000
    19e4:	00001c49 	.word	0x00001c49
    19e8:	000016dd 	.word	0x000016dd
    19ec:	00001815 	.word	0x00001815
    19f0:	00806024 	.word	0x00806024
    19f4:	00001795 	.word	0x00001795
    19f8:	000016a1 	.word	0x000016a1
    19fc:	00001a11 	.word	0x00001a11
    1a00:	00001a35 	.word	0x00001a35
    1a04:	00001aed 	.word	0x00001aed
    1a08:	00001bbd 	.word	0x00001bbd
    1a0c:	40000400 	.word	0x40000400

00001a10 <system_gclk_init>:
			PM->APBAMASK.reg |= mask;
    1a10:	4a06      	ldr	r2, [pc, #24]	; (1a2c <system_gclk_init+0x1c>)
    1a12:	6993      	ldr	r3, [r2, #24]
    1a14:	2108      	movs	r1, #8
    1a16:	430b      	orrs	r3, r1
    1a18:	6193      	str	r3, [r2, #24]
{
	/* Turn on the digital interface clock */
	system_apb_clock_set_mask(SYSTEM_CLOCK_APB_APBA, PM_APBAMASK_GCLK);

	/* Software reset the module to ensure it is re-initialized correctly */
	GCLK->CTRL.reg = GCLK_CTRL_SWRST;
    1a1a:	2201      	movs	r2, #1
    1a1c:	4b04      	ldr	r3, [pc, #16]	; (1a30 <system_gclk_init+0x20>)
    1a1e:	701a      	strb	r2, [r3, #0]
	while (GCLK->CTRL.reg & GCLK_CTRL_SWRST) {
    1a20:	0019      	movs	r1, r3
    1a22:	780b      	ldrb	r3, [r1, #0]
    1a24:	4213      	tst	r3, r2
    1a26:	d1fc      	bne.n	1a22 <system_gclk_init+0x12>
		/* Wait for reset to complete */
	}
}
    1a28:	4770      	bx	lr
    1a2a:	46c0      	nop			; (mov r8, r8)
    1a2c:	40000400 	.word	0x40000400
    1a30:	40000c00 	.word	0x40000c00

00001a34 <system_gclk_gen_set_config>:
 * \param[in] config     Configuration settings for the generator
 */
void system_gclk_gen_set_config(
		const uint8_t generator,
		struct system_gclk_gen_config *const config)
{
    1a34:	b570      	push	{r4, r5, r6, lr}
    1a36:	0006      	movs	r6, r0
	/* Sanity check arguments */
	Assert(config);

	/* Cache new register configurations to minimize sync requirements. */
	uint32_t new_genctrl_config = (generator << GCLK_GENCTRL_ID_Pos);
    1a38:	0004      	movs	r4, r0
	uint32_t new_gendiv_config  = (generator << GCLK_GENDIV_ID_Pos);

	/* Select the requested source clock for the generator */
	new_genctrl_config |= config->source_clock << GCLK_GENCTRL_SRC_Pos;
    1a3a:	780d      	ldrb	r5, [r1, #0]
    1a3c:	022d      	lsls	r5, r5, #8
    1a3e:	4305      	orrs	r5, r0

	/* Configure the clock to be either high or low when disabled */
	if (config->high_when_disabled) {
    1a40:	784b      	ldrb	r3, [r1, #1]
    1a42:	2b00      	cmp	r3, #0
    1a44:	d002      	beq.n	1a4c <system_gclk_gen_set_config+0x18>
		new_genctrl_config |= GCLK_GENCTRL_OOV;
    1a46:	2380      	movs	r3, #128	; 0x80
    1a48:	02db      	lsls	r3, r3, #11
    1a4a:	431d      	orrs	r5, r3
	}

	/* Configure if the clock output to I/O pin should be enabled. */
	if (config->output_enable) {
    1a4c:	7a4b      	ldrb	r3, [r1, #9]
    1a4e:	2b00      	cmp	r3, #0
    1a50:	d002      	beq.n	1a58 <system_gclk_gen_set_config+0x24>
		new_genctrl_config |= GCLK_GENCTRL_OE;
    1a52:	2380      	movs	r3, #128	; 0x80
    1a54:	031b      	lsls	r3, r3, #12
    1a56:	431d      	orrs	r5, r3
	}

	/* Set division factor */
	if (config->division_factor > 1) {
    1a58:	6848      	ldr	r0, [r1, #4]
    1a5a:	2801      	cmp	r0, #1
    1a5c:	d910      	bls.n	1a80 <system_gclk_gen_set_config+0x4c>
		/* Check if division is a power of two */
		if (((config->division_factor & (config->division_factor - 1)) == 0)) {
    1a5e:	1e43      	subs	r3, r0, #1
    1a60:	4218      	tst	r0, r3
    1a62:	d134      	bne.n	1ace <system_gclk_gen_set_config+0x9a>
			 * register */

			uint32_t div2_count = 0;

			uint32_t mask;
			for (mask = (1UL << 1); mask < config->division_factor;
    1a64:	2802      	cmp	r0, #2
    1a66:	d930      	bls.n	1aca <system_gclk_gen_set_config+0x96>
    1a68:	2302      	movs	r3, #2
    1a6a:	2200      	movs	r2, #0
						mask <<= 1) {
				div2_count++;
    1a6c:	3201      	adds	r2, #1
						mask <<= 1) {
    1a6e:	005b      	lsls	r3, r3, #1
			for (mask = (1UL << 1); mask < config->division_factor;
    1a70:	4298      	cmp	r0, r3
    1a72:	d8fb      	bhi.n	1a6c <system_gclk_gen_set_config+0x38>
			}

			/* Set binary divider power of 2 division factor */
			new_gendiv_config  |= div2_count << GCLK_GENDIV_DIV_Pos;
    1a74:	0212      	lsls	r2, r2, #8
    1a76:	4332      	orrs	r2, r6
    1a78:	0014      	movs	r4, r2
			new_genctrl_config |= GCLK_GENCTRL_DIVSEL;
    1a7a:	2380      	movs	r3, #128	; 0x80
    1a7c:	035b      	lsls	r3, r3, #13
    1a7e:	431d      	orrs	r5, r3
		}

	}

	/* Enable or disable the clock in standby mode */
	if (config->run_in_standby) {
    1a80:	7a0b      	ldrb	r3, [r1, #8]
    1a82:	2b00      	cmp	r3, #0
    1a84:	d002      	beq.n	1a8c <system_gclk_gen_set_config+0x58>
		new_genctrl_config |= GCLK_GENCTRL_RUNSTDBY;
    1a86:	2380      	movs	r3, #128	; 0x80
    1a88:	039b      	lsls	r3, r3, #14
    1a8a:	431d      	orrs	r5, r3
	if (GCLK->STATUS.reg & GCLK_STATUS_SYNCBUSY){
    1a8c:	4a13      	ldr	r2, [pc, #76]	; (1adc <system_gclk_gen_set_config+0xa8>)
    1a8e:	7853      	ldrb	r3, [r2, #1]
	}

	while (system_gclk_is_syncing()) {
    1a90:	b25b      	sxtb	r3, r3
    1a92:	2b00      	cmp	r3, #0
    1a94:	dbfb      	blt.n	1a8e <system_gclk_gen_set_config+0x5a>
	cpu_irq_enter_critical();
    1a96:	4b12      	ldr	r3, [pc, #72]	; (1ae0 <system_gclk_gen_set_config+0xac>)
    1a98:	4798      	blx	r3
	};

	system_interrupt_enter_critical_section();

	/* Select the correct generator */
	*((uint8_t*)&GCLK->GENDIV.reg) = generator;
    1a9a:	4b12      	ldr	r3, [pc, #72]	; (1ae4 <system_gclk_gen_set_config+0xb0>)
    1a9c:	701e      	strb	r6, [r3, #0]
	if (GCLK->STATUS.reg & GCLK_STATUS_SYNCBUSY){
    1a9e:	4a0f      	ldr	r2, [pc, #60]	; (1adc <system_gclk_gen_set_config+0xa8>)
    1aa0:	7853      	ldrb	r3, [r2, #1]

	/* Write the new generator configuration */
	while (system_gclk_is_syncing()) {
    1aa2:	b25b      	sxtb	r3, r3
    1aa4:	2b00      	cmp	r3, #0
    1aa6:	dbfb      	blt.n	1aa0 <system_gclk_gen_set_config+0x6c>
		/* Wait for synchronization */
	};
	GCLK->GENDIV.reg  = new_gendiv_config;
    1aa8:	4b0c      	ldr	r3, [pc, #48]	; (1adc <system_gclk_gen_set_config+0xa8>)
    1aaa:	609c      	str	r4, [r3, #8]
	if (GCLK->STATUS.reg & GCLK_STATUS_SYNCBUSY){
    1aac:	001a      	movs	r2, r3
    1aae:	7853      	ldrb	r3, [r2, #1]

	while (system_gclk_is_syncing()) {
    1ab0:	b25b      	sxtb	r3, r3
    1ab2:	2b00      	cmp	r3, #0
    1ab4:	dbfb      	blt.n	1aae <system_gclk_gen_set_config+0x7a>
		/* Wait for synchronization */
	};
	GCLK->GENCTRL.reg = new_genctrl_config | (GCLK->GENCTRL.reg & GCLK_GENCTRL_GENEN);
    1ab6:	4a09      	ldr	r2, [pc, #36]	; (1adc <system_gclk_gen_set_config+0xa8>)
    1ab8:	6853      	ldr	r3, [r2, #4]
    1aba:	2180      	movs	r1, #128	; 0x80
    1abc:	0249      	lsls	r1, r1, #9
    1abe:	400b      	ands	r3, r1
    1ac0:	431d      	orrs	r5, r3
    1ac2:	6055      	str	r5, [r2, #4]
	cpu_irq_leave_critical();
    1ac4:	4b08      	ldr	r3, [pc, #32]	; (1ae8 <system_gclk_gen_set_config+0xb4>)
    1ac6:	4798      	blx	r3

	system_interrupt_leave_critical_section();
}
    1ac8:	bd70      	pop	{r4, r5, r6, pc}
			for (mask = (1UL << 1); mask < config->division_factor;
    1aca:	2200      	movs	r2, #0
    1acc:	e7d2      	b.n	1a74 <system_gclk_gen_set_config+0x40>
					(config->division_factor) << GCLK_GENDIV_DIV_Pos;
    1ace:	0204      	lsls	r4, r0, #8
			new_gendiv_config  |=
    1ad0:	4334      	orrs	r4, r6
			new_genctrl_config |= GCLK_GENCTRL_IDC;
    1ad2:	2380      	movs	r3, #128	; 0x80
    1ad4:	029b      	lsls	r3, r3, #10
    1ad6:	431d      	orrs	r5, r3
    1ad8:	e7d2      	b.n	1a80 <system_gclk_gen_set_config+0x4c>
    1ada:	46c0      	nop			; (mov r8, r8)
    1adc:	40000c00 	.word	0x40000c00
    1ae0:	00000b5d 	.word	0x00000b5d
    1ae4:	40000c08 	.word	0x40000c08
    1ae8:	00000b9d 	.word	0x00000b9d

00001aec <system_gclk_gen_enable>:
 *
 * \param[in] generator  Generic Clock Generator index to enable
 */
void system_gclk_gen_enable(
		const uint8_t generator)
{
    1aec:	b510      	push	{r4, lr}
    1aee:	0004      	movs	r4, r0
	if (GCLK->STATUS.reg & GCLK_STATUS_SYNCBUSY){
    1af0:	4a0b      	ldr	r2, [pc, #44]	; (1b20 <system_gclk_gen_enable+0x34>)
    1af2:	7853      	ldrb	r3, [r2, #1]
	while (system_gclk_is_syncing()) {
    1af4:	b25b      	sxtb	r3, r3
    1af6:	2b00      	cmp	r3, #0
    1af8:	dbfb      	blt.n	1af2 <system_gclk_gen_enable+0x6>
	cpu_irq_enter_critical();
    1afa:	4b0a      	ldr	r3, [pc, #40]	; (1b24 <system_gclk_gen_enable+0x38>)
    1afc:	4798      	blx	r3
	};

	system_interrupt_enter_critical_section();

	/* Select the requested generator */
	*((uint8_t*)&GCLK->GENCTRL.reg) = generator;
    1afe:	4b0a      	ldr	r3, [pc, #40]	; (1b28 <system_gclk_gen_enable+0x3c>)
    1b00:	701c      	strb	r4, [r3, #0]
	if (GCLK->STATUS.reg & GCLK_STATUS_SYNCBUSY){
    1b02:	4a07      	ldr	r2, [pc, #28]	; (1b20 <system_gclk_gen_enable+0x34>)
    1b04:	7853      	ldrb	r3, [r2, #1]
	while (system_gclk_is_syncing()) {
    1b06:	b25b      	sxtb	r3, r3
    1b08:	2b00      	cmp	r3, #0
    1b0a:	dbfb      	blt.n	1b04 <system_gclk_gen_enable+0x18>
		/* Wait for synchronization */
	};

	/* Enable generator */
	GCLK->GENCTRL.reg |= GCLK_GENCTRL_GENEN;
    1b0c:	4a04      	ldr	r2, [pc, #16]	; (1b20 <system_gclk_gen_enable+0x34>)
    1b0e:	6851      	ldr	r1, [r2, #4]
    1b10:	2380      	movs	r3, #128	; 0x80
    1b12:	025b      	lsls	r3, r3, #9
    1b14:	430b      	orrs	r3, r1
    1b16:	6053      	str	r3, [r2, #4]
	cpu_irq_leave_critical();
    1b18:	4b04      	ldr	r3, [pc, #16]	; (1b2c <system_gclk_gen_enable+0x40>)
    1b1a:	4798      	blx	r3

	system_interrupt_leave_critical_section();
}
    1b1c:	bd10      	pop	{r4, pc}
    1b1e:	46c0      	nop			; (mov r8, r8)
    1b20:	40000c00 	.word	0x40000c00
    1b24:	00000b5d 	.word	0x00000b5d
    1b28:	40000c04 	.word	0x40000c04
    1b2c:	00000b9d 	.word	0x00000b9d

00001b30 <system_gclk_gen_get_hz>:
 *
 * \return The frequency of the generic clock generator, in Hz.
 */
uint32_t system_gclk_gen_get_hz(
		const uint8_t generator)
{
    1b30:	b570      	push	{r4, r5, r6, lr}
    1b32:	0004      	movs	r4, r0
	if (GCLK->STATUS.reg & GCLK_STATUS_SYNCBUSY){
    1b34:	4a1a      	ldr	r2, [pc, #104]	; (1ba0 <system_gclk_gen_get_hz+0x70>)
    1b36:	7853      	ldrb	r3, [r2, #1]
	while (system_gclk_is_syncing()) {
    1b38:	b25b      	sxtb	r3, r3
    1b3a:	2b00      	cmp	r3, #0
    1b3c:	dbfb      	blt.n	1b36 <system_gclk_gen_get_hz+0x6>
	cpu_irq_enter_critical();
    1b3e:	4b19      	ldr	r3, [pc, #100]	; (1ba4 <system_gclk_gen_get_hz+0x74>)
    1b40:	4798      	blx	r3
	};

	system_interrupt_enter_critical_section();

	/* Select the appropriate generator */
	*((uint8_t*)&GCLK->GENCTRL.reg) = generator;
    1b42:	4b19      	ldr	r3, [pc, #100]	; (1ba8 <system_gclk_gen_get_hz+0x78>)
    1b44:	701c      	strb	r4, [r3, #0]
	if (GCLK->STATUS.reg & GCLK_STATUS_SYNCBUSY){
    1b46:	4a16      	ldr	r2, [pc, #88]	; (1ba0 <system_gclk_gen_get_hz+0x70>)
    1b48:	7853      	ldrb	r3, [r2, #1]
	while (system_gclk_is_syncing()) {
    1b4a:	b25b      	sxtb	r3, r3
    1b4c:	2b00      	cmp	r3, #0
    1b4e:	dbfb      	blt.n	1b48 <system_gclk_gen_get_hz+0x18>
		/* Wait for synchronization */
	};

	/* Get the frequency of the source connected to the GCLK generator */
	uint32_t gen_input_hz = system_clock_source_get_hz(
			(enum system_clock_source)GCLK->GENCTRL.bit.SRC);
    1b50:	4e13      	ldr	r6, [pc, #76]	; (1ba0 <system_gclk_gen_get_hz+0x70>)
    1b52:	6870      	ldr	r0, [r6, #4]
    1b54:	04c0      	lsls	r0, r0, #19
    1b56:	0ec0      	lsrs	r0, r0, #27
	uint32_t gen_input_hz = system_clock_source_get_hz(
    1b58:	4b14      	ldr	r3, [pc, #80]	; (1bac <system_gclk_gen_get_hz+0x7c>)
    1b5a:	4798      	blx	r3
    1b5c:	0005      	movs	r5, r0

	*((uint8_t*)&GCLK->GENCTRL.reg) = generator;
    1b5e:	4b12      	ldr	r3, [pc, #72]	; (1ba8 <system_gclk_gen_get_hz+0x78>)
    1b60:	701c      	strb	r4, [r3, #0]

	uint8_t divsel = GCLK->GENCTRL.bit.DIVSEL;
    1b62:	6876      	ldr	r6, [r6, #4]
    1b64:	02f6      	lsls	r6, r6, #11
    1b66:	0ff6      	lsrs	r6, r6, #31

	/* Select the appropriate generator division register */
	*((uint8_t*)&GCLK->GENDIV.reg) = generator;
    1b68:	4b11      	ldr	r3, [pc, #68]	; (1bb0 <system_gclk_gen_get_hz+0x80>)
    1b6a:	701c      	strb	r4, [r3, #0]
	if (GCLK->STATUS.reg & GCLK_STATUS_SYNCBUSY){
    1b6c:	4a0c      	ldr	r2, [pc, #48]	; (1ba0 <system_gclk_gen_get_hz+0x70>)
    1b6e:	7853      	ldrb	r3, [r2, #1]
	while (system_gclk_is_syncing()) {
    1b70:	b25b      	sxtb	r3, r3
    1b72:	2b00      	cmp	r3, #0
    1b74:	dbfb      	blt.n	1b6e <system_gclk_gen_get_hz+0x3e>
		/* Wait for synchronization */
	};

	uint32_t divider = GCLK->GENDIV.bit.DIV;
    1b76:	4b0a      	ldr	r3, [pc, #40]	; (1ba0 <system_gclk_gen_get_hz+0x70>)
    1b78:	689c      	ldr	r4, [r3, #8]
    1b7a:	0224      	lsls	r4, r4, #8
    1b7c:	0c24      	lsrs	r4, r4, #16
	cpu_irq_leave_critical();
    1b7e:	4b0d      	ldr	r3, [pc, #52]	; (1bb4 <system_gclk_gen_get_hz+0x84>)
    1b80:	4798      	blx	r3

	system_interrupt_leave_critical_section();

	/* Check if the generator is using fractional or binary division */
	if (!divsel && divider > 1) {
    1b82:	2e00      	cmp	r6, #0
    1b84:	d107      	bne.n	1b96 <system_gclk_gen_get_hz+0x66>
    1b86:	2c01      	cmp	r4, #1
    1b88:	d907      	bls.n	1b9a <system_gclk_gen_get_hz+0x6a>
		gen_input_hz /= divider;
    1b8a:	0021      	movs	r1, r4
    1b8c:	0028      	movs	r0, r5
    1b8e:	4b0a      	ldr	r3, [pc, #40]	; (1bb8 <system_gclk_gen_get_hz+0x88>)
    1b90:	4798      	blx	r3
    1b92:	0005      	movs	r5, r0
    1b94:	e001      	b.n	1b9a <system_gclk_gen_get_hz+0x6a>
	} else if (divsel) {
		gen_input_hz >>= (divider+1);
    1b96:	3401      	adds	r4, #1
    1b98:	40e5      	lsrs	r5, r4
	}

	return gen_input_hz;
}
    1b9a:	0028      	movs	r0, r5
    1b9c:	bd70      	pop	{r4, r5, r6, pc}
    1b9e:	46c0      	nop			; (mov r8, r8)
    1ba0:	40000c00 	.word	0x40000c00
    1ba4:	00000b5d 	.word	0x00000b5d
    1ba8:	40000c04 	.word	0x40000c04
    1bac:	0000160d 	.word	0x0000160d
    1bb0:	40000c08 	.word	0x40000c08
    1bb4:	00000b9d 	.word	0x00000b9d
    1bb8:	000020c1 	.word	0x000020c1

00001bbc <system_gclk_chan_enable>:
 *
 * \param[in] channel   Generic Clock channel to enable
 */
void system_gclk_chan_enable(
		const uint8_t channel)
{
    1bbc:	b510      	push	{r4, lr}
    1bbe:	0004      	movs	r4, r0
	cpu_irq_enter_critical();
    1bc0:	4b06      	ldr	r3, [pc, #24]	; (1bdc <system_gclk_chan_enable+0x20>)
    1bc2:	4798      	blx	r3
	system_interrupt_enter_critical_section();

	/* Select the requested generator channel */
	*((uint8_t*)&GCLK->CLKCTRL.reg) = channel;
    1bc4:	4b06      	ldr	r3, [pc, #24]	; (1be0 <system_gclk_chan_enable+0x24>)
    1bc6:	701c      	strb	r4, [r3, #0]

	/* Enable the generic clock */
	GCLK->CLKCTRL.reg |= GCLK_CLKCTRL_CLKEN;
    1bc8:	4a06      	ldr	r2, [pc, #24]	; (1be4 <system_gclk_chan_enable+0x28>)
    1bca:	8853      	ldrh	r3, [r2, #2]
    1bcc:	2180      	movs	r1, #128	; 0x80
    1bce:	01c9      	lsls	r1, r1, #7
    1bd0:	430b      	orrs	r3, r1
    1bd2:	8053      	strh	r3, [r2, #2]
	cpu_irq_leave_critical();
    1bd4:	4b04      	ldr	r3, [pc, #16]	; (1be8 <system_gclk_chan_enable+0x2c>)
    1bd6:	4798      	blx	r3

	system_interrupt_leave_critical_section();
}
    1bd8:	bd10      	pop	{r4, pc}
    1bda:	46c0      	nop			; (mov r8, r8)
    1bdc:	00000b5d 	.word	0x00000b5d
    1be0:	40000c02 	.word	0x40000c02
    1be4:	40000c00 	.word	0x40000c00
    1be8:	00000b9d 	.word	0x00000b9d

00001bec <system_gclk_chan_disable>:
 *
 * \param[in] channel  Generic Clock channel to disable
 */
void system_gclk_chan_disable(
		const uint8_t channel)
{
    1bec:	b510      	push	{r4, lr}
    1bee:	0004      	movs	r4, r0
	cpu_irq_enter_critical();
    1bf0:	4b0f      	ldr	r3, [pc, #60]	; (1c30 <system_gclk_chan_disable+0x44>)
    1bf2:	4798      	blx	r3
	system_interrupt_enter_critical_section();

	/* Select the requested generator channel */
	*((uint8_t*)&GCLK->CLKCTRL.reg) = channel;
    1bf4:	4b0f      	ldr	r3, [pc, #60]	; (1c34 <system_gclk_chan_disable+0x48>)
    1bf6:	701c      	strb	r4, [r3, #0]

	/* Sanity check WRTLOCK */
	Assert(!GCLK->CLKCTRL.bit.WRTLOCK);

	/* Switch to known-working source so that the channel can be disabled */
	uint32_t prev_gen_id = GCLK->CLKCTRL.bit.GEN;
    1bf8:	4a0f      	ldr	r2, [pc, #60]	; (1c38 <system_gclk_chan_disable+0x4c>)
    1bfa:	8853      	ldrh	r3, [r2, #2]
    1bfc:	051b      	lsls	r3, r3, #20
    1bfe:	0f18      	lsrs	r0, r3, #28
	GCLK->CLKCTRL.bit.GEN = 0;
    1c00:	8853      	ldrh	r3, [r2, #2]
    1c02:	490e      	ldr	r1, [pc, #56]	; (1c3c <system_gclk_chan_disable+0x50>)
    1c04:	400b      	ands	r3, r1
    1c06:	8053      	strh	r3, [r2, #2]

	/* Disable the generic clock */
	GCLK->CLKCTRL.reg &= ~GCLK_CLKCTRL_CLKEN;
    1c08:	8853      	ldrh	r3, [r2, #2]
    1c0a:	490d      	ldr	r1, [pc, #52]	; (1c40 <system_gclk_chan_disable+0x54>)
    1c0c:	400b      	ands	r3, r1
    1c0e:	8053      	strh	r3, [r2, #2]
	while (GCLK->CLKCTRL.reg & GCLK_CLKCTRL_CLKEN) {
    1c10:	0011      	movs	r1, r2
    1c12:	2280      	movs	r2, #128	; 0x80
    1c14:	01d2      	lsls	r2, r2, #7
    1c16:	884b      	ldrh	r3, [r1, #2]
    1c18:	4213      	tst	r3, r2
    1c1a:	d1fc      	bne.n	1c16 <system_gclk_chan_disable+0x2a>
		/* Wait for clock to become disabled */
	}

	/* Restore previous configured clock generator */
	GCLK->CLKCTRL.bit.GEN = prev_gen_id;
    1c1c:	4906      	ldr	r1, [pc, #24]	; (1c38 <system_gclk_chan_disable+0x4c>)
    1c1e:	884a      	ldrh	r2, [r1, #2]
    1c20:	0203      	lsls	r3, r0, #8
    1c22:	4806      	ldr	r0, [pc, #24]	; (1c3c <system_gclk_chan_disable+0x50>)
    1c24:	4002      	ands	r2, r0
    1c26:	4313      	orrs	r3, r2
    1c28:	804b      	strh	r3, [r1, #2]
	cpu_irq_leave_critical();
    1c2a:	4b06      	ldr	r3, [pc, #24]	; (1c44 <system_gclk_chan_disable+0x58>)
    1c2c:	4798      	blx	r3

	system_interrupt_leave_critical_section();
}
    1c2e:	bd10      	pop	{r4, pc}
    1c30:	00000b5d 	.word	0x00000b5d
    1c34:	40000c02 	.word	0x40000c02
    1c38:	40000c00 	.word	0x40000c00
    1c3c:	fffff0ff 	.word	0xfffff0ff
    1c40:	ffffbfff 	.word	0xffffbfff
    1c44:	00000b9d 	.word	0x00000b9d

00001c48 <system_gclk_chan_set_config>:
{
    1c48:	b510      	push	{r4, lr}
	new_clkctrl_config |= config->source_generator << GCLK_CLKCTRL_GEN_Pos;
    1c4a:	780c      	ldrb	r4, [r1, #0]
    1c4c:	0224      	lsls	r4, r4, #8
    1c4e:	4304      	orrs	r4, r0
	system_gclk_chan_disable(channel);
    1c50:	4b02      	ldr	r3, [pc, #8]	; (1c5c <system_gclk_chan_set_config+0x14>)
    1c52:	4798      	blx	r3
	GCLK->CLKCTRL.reg = new_clkctrl_config;
    1c54:	b2a4      	uxth	r4, r4
    1c56:	4b02      	ldr	r3, [pc, #8]	; (1c60 <system_gclk_chan_set_config+0x18>)
    1c58:	805c      	strh	r4, [r3, #2]
}
    1c5a:	bd10      	pop	{r4, pc}
    1c5c:	00001bed 	.word	0x00001bed
    1c60:	40000c00 	.word	0x40000c00

00001c64 <system_gclk_chan_get_hz>:
 *
 * \return The frequency of the generic clock channel, in Hz.
 */
uint32_t system_gclk_chan_get_hz(
		const uint8_t channel)
{
    1c64:	b510      	push	{r4, lr}
    1c66:	0004      	movs	r4, r0
	cpu_irq_enter_critical();
    1c68:	4b06      	ldr	r3, [pc, #24]	; (1c84 <system_gclk_chan_get_hz+0x20>)
    1c6a:	4798      	blx	r3
	uint8_t gen_id;

	system_interrupt_enter_critical_section();

	/* Select the requested generic clock channel */
	*((uint8_t*)&GCLK->CLKCTRL.reg) = channel;
    1c6c:	4b06      	ldr	r3, [pc, #24]	; (1c88 <system_gclk_chan_get_hz+0x24>)
    1c6e:	701c      	strb	r4, [r3, #0]
	gen_id = GCLK->CLKCTRL.bit.GEN;
    1c70:	4b06      	ldr	r3, [pc, #24]	; (1c8c <system_gclk_chan_get_hz+0x28>)
    1c72:	885c      	ldrh	r4, [r3, #2]
    1c74:	0524      	lsls	r4, r4, #20
    1c76:	0f24      	lsrs	r4, r4, #28
	cpu_irq_leave_critical();
    1c78:	4b05      	ldr	r3, [pc, #20]	; (1c90 <system_gclk_chan_get_hz+0x2c>)
    1c7a:	4798      	blx	r3

	system_interrupt_leave_critical_section();

	/* Return the clock speed of the associated GCLK generator */
	return system_gclk_gen_get_hz(gen_id);
    1c7c:	0020      	movs	r0, r4
    1c7e:	4b05      	ldr	r3, [pc, #20]	; (1c94 <system_gclk_chan_get_hz+0x30>)
    1c80:	4798      	blx	r3
}
    1c82:	bd10      	pop	{r4, pc}
    1c84:	00000b5d 	.word	0x00000b5d
    1c88:	40000c02 	.word	0x40000c02
    1c8c:	40000c00 	.word	0x40000c00
    1c90:	00000b9d 	.word	0x00000b9d
    1c94:	00001b31 	.word	0x00001b31

00001c98 <_system_pinmux_config>:
 */
static void _system_pinmux_config(
		PortGroup *const port,
		const uint32_t pin_mask,
		const struct system_pinmux_config *const config)
{
    1c98:	b530      	push	{r4, r5, lr}

	/* Track the configuration bits into a temporary variable before writing */
	uint32_t pin_cfg = 0;

	/* Enabled powersave mode, don't create configuration */
	if (!config->powersave) {
    1c9a:	78d3      	ldrb	r3, [r2, #3]
    1c9c:	2b00      	cmp	r3, #0
    1c9e:	d135      	bne.n	1d0c <_system_pinmux_config+0x74>
		/* Enable the pin peripheral MUX flag if non-GPIO selected (pinmux will
		 * be written later) and store the new MUX mask */
		if (config->mux_position != SYSTEM_PINMUX_GPIO) {
    1ca0:	7813      	ldrb	r3, [r2, #0]
    1ca2:	2b80      	cmp	r3, #128	; 0x80
    1ca4:	d029      	beq.n	1cfa <_system_pinmux_config+0x62>
			pin_cfg |= PORT_WRCONFIG_PMUXEN;
			pin_cfg |= (config->mux_position << PORT_WRCONFIG_PMUX_Pos);
    1ca6:	061b      	lsls	r3, r3, #24
    1ca8:	2480      	movs	r4, #128	; 0x80
    1caa:	0264      	lsls	r4, r4, #9
    1cac:	4323      	orrs	r3, r4
		}

		/* Check if the user has requested that the input buffer be enabled */
		if ((config->direction == SYSTEM_PINMUX_PIN_DIR_INPUT) ||
    1cae:	7854      	ldrb	r4, [r2, #1]
    1cb0:	2502      	movs	r5, #2
    1cb2:	43ac      	bics	r4, r5
    1cb4:	d106      	bne.n	1cc4 <_system_pinmux_config+0x2c>
				(config->direction == SYSTEM_PINMUX_PIN_DIR_OUTPUT_WITH_READBACK)) {
			/* Enable input buffer flag */
			pin_cfg |= PORT_WRCONFIG_INEN;

			/* Enable pull-up/pull-down control flag if requested */
			if (config->input_pull != SYSTEM_PINMUX_PIN_PULL_NONE) {
    1cb6:	7894      	ldrb	r4, [r2, #2]
    1cb8:	2c00      	cmp	r4, #0
    1cba:	d120      	bne.n	1cfe <_system_pinmux_config+0x66>
			pin_cfg |= PORT_WRCONFIG_INEN;
    1cbc:	2480      	movs	r4, #128	; 0x80
    1cbe:	02a4      	lsls	r4, r4, #10
    1cc0:	4323      	orrs	r3, r4
				pin_cfg |= PORT_WRCONFIG_PULLEN;
			}

			/* Clear the port DIR bits to disable the output buffer */
			port->DIRCLR.reg = pin_mask;
    1cc2:	6041      	str	r1, [r0, #4]
		}

		/* Check if the user has requested that the output buffer be enabled */
		if ((config->direction == SYSTEM_PINMUX_PIN_DIR_OUTPUT) ||
    1cc4:	7854      	ldrb	r4, [r2, #1]
    1cc6:	3c01      	subs	r4, #1
    1cc8:	2c01      	cmp	r4, #1
    1cca:	d91c      	bls.n	1d06 <_system_pinmux_config+0x6e>
		port->DIRCLR.reg = pin_mask;
	}

	/* The Write Configuration register (WRCONFIG) requires the
	 * pins to to grouped into two 16-bit half-words - split them out here */
	uint32_t lower_pin_mask = (pin_mask & 0xFFFF);
    1ccc:	040d      	lsls	r5, r1, #16
    1cce:	0c2d      	lsrs	r5, r5, #16

	/* Configure the lower 16-bits of the port to the desired configuration,
	 * including the pin peripheral multiplexer just in case it is enabled */
	port->WRCONFIG.reg
		= (lower_pin_mask << PORT_WRCONFIG_PINMASK_Pos) |
			pin_cfg | PORT_WRCONFIG_WRPMUX | PORT_WRCONFIG_WRPINCFG;
    1cd0:	24a0      	movs	r4, #160	; 0xa0
    1cd2:	05e4      	lsls	r4, r4, #23
    1cd4:	432c      	orrs	r4, r5
    1cd6:	431c      	orrs	r4, r3
		= (lower_pin_mask << PORT_WRCONFIG_PINMASK_Pos) |
    1cd8:	6284      	str	r4, [r0, #40]	; 0x28
	uint32_t upper_pin_mask = (pin_mask >> 16);
    1cda:	0c0d      	lsrs	r5, r1, #16

	/* Configure the upper 16-bits of the port to the desired configuration,
	 * including the pin peripheral multiplexer just in case it is enabled */
	port->WRCONFIG.reg
		= (upper_pin_mask << PORT_WRCONFIG_PINMASK_Pos) |
			pin_cfg | PORT_WRCONFIG_WRPMUX | PORT_WRCONFIG_WRPINCFG |
    1cdc:	24d0      	movs	r4, #208	; 0xd0
    1cde:	0624      	lsls	r4, r4, #24
    1ce0:	432c      	orrs	r4, r5
    1ce2:	431c      	orrs	r4, r3
		= (upper_pin_mask << PORT_WRCONFIG_PINMASK_Pos) |
    1ce4:	6284      	str	r4, [r0, #40]	; 0x28
			PORT_WRCONFIG_HWSEL;

	if(!config->powersave) {
    1ce6:	78d4      	ldrb	r4, [r2, #3]
    1ce8:	2c00      	cmp	r4, #0
    1cea:	d122      	bne.n	1d32 <_system_pinmux_config+0x9a>
		/* Set the pull-up state once the port pins are configured if one was
		 * requested and it does not violate the valid set of port
		 * configurations */
		if (pin_cfg & PORT_WRCONFIG_PULLEN) {
    1cec:	035b      	lsls	r3, r3, #13
    1cee:	d51c      	bpl.n	1d2a <_system_pinmux_config+0x92>
			/* Set the OUT register bits to enable the pull-up if requested,
			 * clear to enable pull-down */
			if (config->input_pull == SYSTEM_PINMUX_PIN_PULL_UP) {
    1cf0:	7893      	ldrb	r3, [r2, #2]
    1cf2:	2b01      	cmp	r3, #1
    1cf4:	d01e      	beq.n	1d34 <_system_pinmux_config+0x9c>
				port->OUTSET.reg = pin_mask;
			} else {
				port->OUTCLR.reg = pin_mask;
    1cf6:	6141      	str	r1, [r0, #20]
    1cf8:	e017      	b.n	1d2a <_system_pinmux_config+0x92>
	uint32_t pin_cfg = 0;
    1cfa:	2300      	movs	r3, #0
    1cfc:	e7d7      	b.n	1cae <_system_pinmux_config+0x16>
				pin_cfg |= PORT_WRCONFIG_PULLEN;
    1cfe:	24c0      	movs	r4, #192	; 0xc0
    1d00:	02e4      	lsls	r4, r4, #11
    1d02:	4323      	orrs	r3, r4
    1d04:	e7dd      	b.n	1cc2 <_system_pinmux_config+0x2a>
			pin_cfg &= ~PORT_WRCONFIG_PULLEN;
    1d06:	4c0d      	ldr	r4, [pc, #52]	; (1d3c <_system_pinmux_config+0xa4>)
    1d08:	4023      	ands	r3, r4
    1d0a:	e7df      	b.n	1ccc <_system_pinmux_config+0x34>
		port->DIRCLR.reg = pin_mask;
    1d0c:	6041      	str	r1, [r0, #4]
	uint32_t lower_pin_mask = (pin_mask & 0xFFFF);
    1d0e:	040c      	lsls	r4, r1, #16
    1d10:	0c24      	lsrs	r4, r4, #16
			pin_cfg | PORT_WRCONFIG_WRPMUX | PORT_WRCONFIG_WRPINCFG;
    1d12:	23a0      	movs	r3, #160	; 0xa0
    1d14:	05db      	lsls	r3, r3, #23
    1d16:	4323      	orrs	r3, r4
		= (lower_pin_mask << PORT_WRCONFIG_PINMASK_Pos) |
    1d18:	6283      	str	r3, [r0, #40]	; 0x28
	uint32_t upper_pin_mask = (pin_mask >> 16);
    1d1a:	0c0c      	lsrs	r4, r1, #16
			pin_cfg | PORT_WRCONFIG_WRPMUX | PORT_WRCONFIG_WRPINCFG |
    1d1c:	23d0      	movs	r3, #208	; 0xd0
    1d1e:	061b      	lsls	r3, r3, #24
    1d20:	4323      	orrs	r3, r4
		= (upper_pin_mask << PORT_WRCONFIG_PINMASK_Pos) |
    1d22:	6283      	str	r3, [r0, #40]	; 0x28
	if(!config->powersave) {
    1d24:	78d3      	ldrb	r3, [r2, #3]
    1d26:	2b00      	cmp	r3, #0
    1d28:	d103      	bne.n	1d32 <_system_pinmux_config+0x9a>
			}
		}

		/* Check if the user has requested that the output buffer be enabled */
		if ((config->direction == SYSTEM_PINMUX_PIN_DIR_OUTPUT) ||
    1d2a:	7853      	ldrb	r3, [r2, #1]
    1d2c:	3b01      	subs	r3, #1
    1d2e:	2b01      	cmp	r3, #1
    1d30:	d902      	bls.n	1d38 <_system_pinmux_config+0xa0>
				(config->direction == SYSTEM_PINMUX_PIN_DIR_OUTPUT_WITH_READBACK)) {
			/* Set the port DIR bits to enable the output buffer */
			port->DIRSET.reg = pin_mask;
		}
	}
}
    1d32:	bd30      	pop	{r4, r5, pc}
				port->OUTSET.reg = pin_mask;
    1d34:	6181      	str	r1, [r0, #24]
    1d36:	e7f8      	b.n	1d2a <_system_pinmux_config+0x92>
			port->DIRSET.reg = pin_mask;
    1d38:	6081      	str	r1, [r0, #8]
}
    1d3a:	e7fa      	b.n	1d32 <_system_pinmux_config+0x9a>
    1d3c:	fffbffff 	.word	0xfffbffff

00001d40 <system_pinmux_pin_set_config>:
 * \param[in] config    Configuration settings for the pin
 */
void system_pinmux_pin_set_config(
		const uint8_t gpio_pin,
		const struct system_pinmux_config *const config)
{
    1d40:	b510      	push	{r4, lr}
    1d42:	000a      	movs	r2, r1
	uint8_t group_index = (gpio_pin / 32);

	/* Array of available ports */
	Port *const ports[PORT_INST_NUM] = PORT_INSTS;

	if (port_index < PORT_INST_NUM) {
    1d44:	09c1      	lsrs	r1, r0, #7
		return &(ports[port_index]->Group[group_index]);
	} else {
		Assert(false);
		return NULL;
    1d46:	2300      	movs	r3, #0
	if (port_index < PORT_INST_NUM) {
    1d48:	2900      	cmp	r1, #0
    1d4a:	d104      	bne.n	1d56 <system_pinmux_pin_set_config+0x16>
		return &(ports[port_index]->Group[group_index]);
    1d4c:	0943      	lsrs	r3, r0, #5
    1d4e:	01db      	lsls	r3, r3, #7
    1d50:	4905      	ldr	r1, [pc, #20]	; (1d68 <system_pinmux_pin_set_config+0x28>)
    1d52:	468c      	mov	ip, r1
    1d54:	4463      	add	r3, ip
	PortGroup *const port = system_pinmux_get_group_from_gpio_pin(gpio_pin);
	uint32_t pin_mask = (1UL << (gpio_pin % 32));
    1d56:	241f      	movs	r4, #31
    1d58:	4020      	ands	r0, r4
    1d5a:	2101      	movs	r1, #1
    1d5c:	4081      	lsls	r1, r0

	_system_pinmux_config(port, pin_mask, config);
    1d5e:	0018      	movs	r0, r3
    1d60:	4b02      	ldr	r3, [pc, #8]	; (1d6c <system_pinmux_pin_set_config+0x2c>)
    1d62:	4798      	blx	r3
}
    1d64:	bd10      	pop	{r4, pc}
    1d66:	46c0      	nop			; (mov r8, r8)
    1d68:	41004400 	.word	0x41004400
    1d6c:	00001c99 	.word	0x00001c99

00001d70 <_system_dummy_init>:
 */
void _system_dummy_init(void);
void _system_dummy_init(void)
{
	return;
}
    1d70:	4770      	bx	lr
	...

00001d74 <system_init>:
 *  - Board hardware initialization (via the Board module)
 *  - Event system driver initialization (via the EVSYS module)
 *  - External Interrupt driver initialization (via the EXTINT module)
 */
void system_init(void)
{
    1d74:	b510      	push	{r4, lr}
	/* Configure GCLK and clock sources according to conf_clocks.h */
	system_clock_init();
    1d76:	4b05      	ldr	r3, [pc, #20]	; (1d8c <system_init+0x18>)
    1d78:	4798      	blx	r3

	/* Initialize board hardware */
	system_board_init();
    1d7a:	4b05      	ldr	r3, [pc, #20]	; (1d90 <system_init+0x1c>)
    1d7c:	4798      	blx	r3

	/* Initialize EVSYS hardware */
	_system_events_init();
    1d7e:	4b05      	ldr	r3, [pc, #20]	; (1d94 <system_init+0x20>)
    1d80:	4798      	blx	r3

	/* Initialize External hardware */
	_system_extint_init();
    1d82:	4b05      	ldr	r3, [pc, #20]	; (1d98 <system_init+0x24>)
    1d84:	4798      	blx	r3
	
	/* Initialize DIVAS hardware */
	_system_divas_init();
    1d86:	4b05      	ldr	r3, [pc, #20]	; (1d9c <system_init+0x28>)
    1d88:	4798      	blx	r3
}
    1d8a:	bd10      	pop	{r4, pc}
    1d8c:	000018bd 	.word	0x000018bd
    1d90:	00000115 	.word	0x00000115
    1d94:	00001d71 	.word	0x00001d71
    1d98:	00001d71 	.word	0x00001d71
    1d9c:	00001d71 	.word	0x00001d71

00001da0 <Dummy_Handler>:

/**
 * \brief Default interrupt handler for unused IRQs.
 */
void Dummy_Handler(void)
{
    1da0:	e7fe      	b.n	1da0 <Dummy_Handler>
	...

00001da4 <Reset_Handler>:
{
    1da4:	b5f8      	push	{r3, r4, r5, r6, r7, lr}
        if (pSrc != pDest) {
    1da6:	4a2a      	ldr	r2, [pc, #168]	; (1e50 <Reset_Handler+0xac>)
    1da8:	4b2a      	ldr	r3, [pc, #168]	; (1e54 <Reset_Handler+0xb0>)
    1daa:	429a      	cmp	r2, r3
    1dac:	d011      	beq.n	1dd2 <Reset_Handler+0x2e>
                for (; pDest < &_erelocate;) {
    1dae:	001a      	movs	r2, r3
    1db0:	4b29      	ldr	r3, [pc, #164]	; (1e58 <Reset_Handler+0xb4>)
    1db2:	429a      	cmp	r2, r3
    1db4:	d20d      	bcs.n	1dd2 <Reset_Handler+0x2e>
    1db6:	4a29      	ldr	r2, [pc, #164]	; (1e5c <Reset_Handler+0xb8>)
    1db8:	3303      	adds	r3, #3
    1dba:	1a9b      	subs	r3, r3, r2
    1dbc:	089b      	lsrs	r3, r3, #2
    1dbe:	3301      	adds	r3, #1
    1dc0:	009b      	lsls	r3, r3, #2
    1dc2:	2200      	movs	r2, #0
                        *pDest++ = *pSrc++;
    1dc4:	4823      	ldr	r0, [pc, #140]	; (1e54 <Reset_Handler+0xb0>)
    1dc6:	4922      	ldr	r1, [pc, #136]	; (1e50 <Reset_Handler+0xac>)
    1dc8:	588c      	ldr	r4, [r1, r2]
    1dca:	5084      	str	r4, [r0, r2]
    1dcc:	3204      	adds	r2, #4
                for (; pDest < &_erelocate;) {
    1dce:	429a      	cmp	r2, r3
    1dd0:	d1fa      	bne.n	1dc8 <Reset_Handler+0x24>
        for (pDest = &_szero; pDest < &_ezero;) {
    1dd2:	4a23      	ldr	r2, [pc, #140]	; (1e60 <Reset_Handler+0xbc>)
    1dd4:	4b23      	ldr	r3, [pc, #140]	; (1e64 <Reset_Handler+0xc0>)
    1dd6:	429a      	cmp	r2, r3
    1dd8:	d20a      	bcs.n	1df0 <Reset_Handler+0x4c>
    1dda:	43d3      	mvns	r3, r2
    1ddc:	4921      	ldr	r1, [pc, #132]	; (1e64 <Reset_Handler+0xc0>)
    1dde:	185b      	adds	r3, r3, r1
    1de0:	2103      	movs	r1, #3
    1de2:	438b      	bics	r3, r1
    1de4:	3304      	adds	r3, #4
    1de6:	189b      	adds	r3, r3, r2
                *pDest++ = 0;
    1de8:	2100      	movs	r1, #0
    1dea:	c202      	stmia	r2!, {r1}
        for (pDest = &_szero; pDest < &_ezero;) {
    1dec:	4293      	cmp	r3, r2
    1dee:	d1fc      	bne.n	1dea <Reset_Handler+0x46>
        SCB->VTOR = ((uint32_t) pSrc & SCB_VTOR_TBLOFF_Msk);
    1df0:	4a1d      	ldr	r2, [pc, #116]	; (1e68 <Reset_Handler+0xc4>)
    1df2:	21ff      	movs	r1, #255	; 0xff
    1df4:	4b1d      	ldr	r3, [pc, #116]	; (1e6c <Reset_Handler+0xc8>)
    1df6:	438b      	bics	r3, r1
    1df8:	6093      	str	r3, [r2, #8]
        SBMATRIX->SFR[SBMATRIX_SLAVE_HMCRAMC0].reg = 2;
    1dfa:	39fd      	subs	r1, #253	; 0xfd
    1dfc:	2390      	movs	r3, #144	; 0x90
    1dfe:	005b      	lsls	r3, r3, #1
    1e00:	4a1b      	ldr	r2, [pc, #108]	; (1e70 <Reset_Handler+0xcc>)
    1e02:	50d1      	str	r1, [r2, r3]
        USB->DEVICE.QOSCTRL.bit.CQOS = 2;
    1e04:	4a1b      	ldr	r2, [pc, #108]	; (1e74 <Reset_Handler+0xd0>)
    1e06:	78d3      	ldrb	r3, [r2, #3]
    1e08:	2503      	movs	r5, #3
    1e0a:	43ab      	bics	r3, r5
    1e0c:	2402      	movs	r4, #2
    1e0e:	4323      	orrs	r3, r4
    1e10:	70d3      	strb	r3, [r2, #3]
        USB->DEVICE.QOSCTRL.bit.DQOS = 2;
    1e12:	78d3      	ldrb	r3, [r2, #3]
    1e14:	270c      	movs	r7, #12
    1e16:	43bb      	bics	r3, r7
    1e18:	2608      	movs	r6, #8
    1e1a:	4333      	orrs	r3, r6
    1e1c:	70d3      	strb	r3, [r2, #3]
        DMAC->QOSCTRL.bit.DQOS = 2;
    1e1e:	4b16      	ldr	r3, [pc, #88]	; (1e78 <Reset_Handler+0xd4>)
    1e20:	7b98      	ldrb	r0, [r3, #14]
    1e22:	2230      	movs	r2, #48	; 0x30
    1e24:	4390      	bics	r0, r2
    1e26:	2220      	movs	r2, #32
    1e28:	4310      	orrs	r0, r2
    1e2a:	7398      	strb	r0, [r3, #14]
        DMAC->QOSCTRL.bit.FQOS = 2;
    1e2c:	7b99      	ldrb	r1, [r3, #14]
    1e2e:	43b9      	bics	r1, r7
    1e30:	4331      	orrs	r1, r6
    1e32:	7399      	strb	r1, [r3, #14]
        DMAC->QOSCTRL.bit.WRBQOS = 2;
    1e34:	7b9a      	ldrb	r2, [r3, #14]
    1e36:	43aa      	bics	r2, r5
    1e38:	4322      	orrs	r2, r4
    1e3a:	739a      	strb	r2, [r3, #14]
        NVMCTRL->CTRLB.bit.MANW = 1;
    1e3c:	4a0f      	ldr	r2, [pc, #60]	; (1e7c <Reset_Handler+0xd8>)
    1e3e:	6853      	ldr	r3, [r2, #4]
    1e40:	2180      	movs	r1, #128	; 0x80
    1e42:	430b      	orrs	r3, r1
    1e44:	6053      	str	r3, [r2, #4]
        __libc_init_array();
    1e46:	4b0e      	ldr	r3, [pc, #56]	; (1e80 <Reset_Handler+0xdc>)
    1e48:	4798      	blx	r3
        main();
    1e4a:	4b0e      	ldr	r3, [pc, #56]	; (1e84 <Reset_Handler+0xe0>)
    1e4c:	4798      	blx	r3
    1e4e:	e7fe      	b.n	1e4e <Reset_Handler+0xaa>
    1e50:	000046dc 	.word	0x000046dc
    1e54:	20000000 	.word	0x20000000
    1e58:	20000174 	.word	0x20000174
    1e5c:	20000004 	.word	0x20000004
    1e60:	20000174 	.word	0x20000174
    1e64:	200007ac 	.word	0x200007ac
    1e68:	e000ed00 	.word	0xe000ed00
    1e6c:	00000000 	.word	0x00000000
    1e70:	41007000 	.word	0x41007000
    1e74:	41005000 	.word	0x41005000
    1e78:	41004800 	.word	0x41004800
    1e7c:	41004000 	.word	0x41004000
    1e80:	00003ccd 	.word	0x00003ccd
    1e84:	00001f99 	.word	0x00001f99

00001e88 <_sbrk>:
extern void _exit(int status);
extern void _kill(int pid, int sig);
extern int _getpid(void);

extern caddr_t _sbrk(int incr)
{
    1e88:	0003      	movs	r3, r0
	static unsigned char *heap = NULL;
	unsigned char *prev_heap;

	if (heap == NULL) {
    1e8a:	4a06      	ldr	r2, [pc, #24]	; (1ea4 <_sbrk+0x1c>)
    1e8c:	6812      	ldr	r2, [r2, #0]
    1e8e:	2a00      	cmp	r2, #0
    1e90:	d004      	beq.n	1e9c <_sbrk+0x14>
		heap = (unsigned char *)&_end;
	}
	prev_heap = heap;
    1e92:	4a04      	ldr	r2, [pc, #16]	; (1ea4 <_sbrk+0x1c>)
    1e94:	6810      	ldr	r0, [r2, #0]

	heap += incr;
    1e96:	18c3      	adds	r3, r0, r3
    1e98:	6013      	str	r3, [r2, #0]

	return (caddr_t) prev_heap;
}
    1e9a:	4770      	bx	lr
		heap = (unsigned char *)&_end;
    1e9c:	4902      	ldr	r1, [pc, #8]	; (1ea8 <_sbrk+0x20>)
    1e9e:	4a01      	ldr	r2, [pc, #4]	; (1ea4 <_sbrk+0x1c>)
    1ea0:	6011      	str	r1, [r2, #0]
    1ea2:	e7f6      	b.n	1e92 <_sbrk+0xa>
    1ea4:	200001cc 	.word	0x200001cc
    1ea8:	200027b0 	.word	0x200027b0

00001eac <i2c_read_complete_callback>:
{
	i2c_master_read_packet_job(&i2c_master_instance,&rd_packet);
}

void i2c_read_complete_callback(struct i2c_master_module *const module)
{
    1eac:	b510      	push	{r4, lr}
	//i2c_master_read_packet_job(&i2c_master_instance,&rd_packet);
	SerialConsoleWriteString("Reading complete\n\r");
    1eae:	4802      	ldr	r0, [pc, #8]	; (1eb8 <i2c_read_complete_callback+0xc>)
    1eb0:	4b02      	ldr	r3, [pc, #8]	; (1ebc <i2c_read_complete_callback+0x10>)
    1eb2:	4798      	blx	r3
}
    1eb4:	bd10      	pop	{r4, pc}
    1eb6:	46c0      	nop			; (mov r8, r8)
    1eb8:	000045d8 	.word	0x000045d8
    1ebc:	00000a91 	.word	0x00000a91

00001ec0 <configure_i2c>:

/**
* Configure I2c
*/
void configure_i2c(void)
{
    1ec0:	b530      	push	{r4, r5, lr}
    1ec2:	b08f      	sub	sp, #60	; 0x3c
static inline void i2c_master_get_config_defaults(
		struct i2c_master_config *const config)
{
	/*Sanity check argument */
	Assert(config);
	config->baud_rate        = I2C_MASTER_BAUD_RATE_100KHZ;
    1ec4:	ab01      	add	r3, sp, #4
    1ec6:	2264      	movs	r2, #100	; 0x64
    1ec8:	9201      	str	r2, [sp, #4]
#ifdef FEATURE_I2C_FAST_MODE_PLUS_AND_HIGH_SPEED
	config->baud_rate_high_speed = I2C_MASTER_BAUD_RATE_3400KHZ;
    1eca:	4a22      	ldr	r2, [pc, #136]	; (1f54 <configure_i2c+0x94>)
    1ecc:	9202      	str	r2, [sp, #8]
	config->transfer_speed       = I2C_MASTER_SPEED_STANDARD_AND_FAST;
    1ece:	2200      	movs	r2, #0
    1ed0:	9203      	str	r2, [sp, #12]
#endif
	config->generator_source = GCLK_GENERATOR_0;
    1ed2:	731a      	strb	r2, [r3, #12]
	config->run_in_standby   = false;
    1ed4:	761a      	strb	r2, [r3, #24]
	config->start_hold_time  = I2C_MASTER_START_HOLD_TIME_300NS_600NS;
    1ed6:	2180      	movs	r1, #128	; 0x80
    1ed8:	0389      	lsls	r1, r1, #14
    1eda:	9105      	str	r1, [sp, #20]
	config->buffer_timeout   = 65535;
    1edc:	2101      	movs	r1, #1
    1ede:	4249      	negs	r1, r1
    1ee0:	82d9      	strh	r1, [r3, #22]
	config->unknown_bus_state_timeout = 65535;
    1ee2:	8299      	strh	r1, [r3, #20]
	config->pinmux_pad0      = PINMUX_DEFAULT;
	config->pinmux_pad1      = PINMUX_DEFAULT;
	config->scl_low_timeout  = false;
    1ee4:	3125      	adds	r1, #37	; 0x25
    1ee6:	545a      	strb	r2, [r3, r1]
	config->inactive_timeout = I2C_MASTER_INACTIVE_TIMEOUT_DISABLED;
    1ee8:	920b      	str	r2, [sp, #44]	; 0x2c
#ifdef FEATURE_I2C_SCL_STRETCH_MODE
	config->scl_stretch_only_after_ack_bit = false;
    1eea:	3108      	adds	r1, #8
    1eec:	545a      	strb	r2, [r3, r1]
#endif
#ifdef FEATURE_I2C_SCL_EXTEND_TIMEOUT
	config->slave_scl_low_extend_timeout   = false;
    1eee:	3101      	adds	r1, #1
    1ef0:	545a      	strb	r2, [r3, r1]
	config->master_scl_low_extend_timeout  = false;
    1ef2:	3101      	adds	r1, #1
    1ef4:	545a      	strb	r2, [r3, r1]
#endif
	/* The typical value is 215ns */
	config->sda_scl_rise_time_ns = 215;
    1ef6:	32d7      	adds	r2, #215	; 0xd7
    1ef8:	861a      	strh	r2, [r3, #48]	; 0x30
// 	#if SAMR30
// 	config_i2c_master.pinmux_pad0    = CONF_MASTER_SDA_PINMUX;
// 	config_i2c_master.pinmux_pad1    = CONF_MASTER_SCK_PINMUX;
// 	#endif

	config_i2c_master.pinmux_pad0    = PINMUX_PA08D_SERCOM2_PAD0; // SDA
    1efa:	4a17      	ldr	r2, [pc, #92]	; (1f58 <configure_i2c+0x98>)
    1efc:	9208      	str	r2, [sp, #32]
	config_i2c_master.pinmux_pad1    = PINMUX_PA09D_SERCOM2_PAD1; // SCK
    1efe:	4a17      	ldr	r2, [pc, #92]	; (1f5c <configure_i2c+0x9c>)
    1f00:	9209      	str	r2, [sp, #36]	; 0x24

	/* Initialize and enable device with config */
	while(i2c_master_init(&i2c_master_instance, CONF_I2C_MASTER_MODULE, &config_i2c_master)     \
    1f02:	4d17      	ldr	r5, [pc, #92]	; (1f60 <configure_i2c+0xa0>)
    1f04:	4c17      	ldr	r4, [pc, #92]	; (1f64 <configure_i2c+0xa4>)
    1f06:	aa01      	add	r2, sp, #4
    1f08:	4917      	ldr	r1, [pc, #92]	; (1f68 <configure_i2c+0xa8>)
    1f0a:	0028      	movs	r0, r5
    1f0c:	47a0      	blx	r4
    1f0e:	2800      	cmp	r0, #0
    1f10:	d1f9      	bne.n	1f06 <configure_i2c+0x46>
{
	/* Sanity check of arguments */
	Assert(module);
	Assert(module->hw);

	SercomI2cm *const i2c_module = &(module->hw->I2CM);
    1f12:	4b13      	ldr	r3, [pc, #76]	; (1f60 <configure_i2c+0xa0>)
    1f14:	681c      	ldr	r4, [r3, #0]
	return (i2c_hw->SYNCBUSY.reg & SERCOM_I2CM_SYNCBUSY_MASK);
    1f16:	2207      	movs	r2, #7
    1f18:	69e3      	ldr	r3, [r4, #28]
	while (i2c_master_is_syncing(module)) {
    1f1a:	421a      	tst	r2, r3
    1f1c:	d1fc      	bne.n	1f18 <configure_i2c+0x58>

	/* Wait for module to sync */
	_i2c_master_wait_for_sync(module);

	/* Enable module */
	i2c_module->CTRLA.reg |= SERCOM_I2CM_CTRLA_ENABLE;
    1f1e:	6823      	ldr	r3, [r4, #0]
    1f20:	2202      	movs	r2, #2
    1f22:	4313      	orrs	r3, r2
    1f24:	6023      	str	r3, [r4, #0]

#if I2C_MASTER_CALLBACK_MODE == true
	/* Enable module interrupts */
	system_interrupt_enable(_sercom_get_interrupt_vector(module->hw));
    1f26:	4d0e      	ldr	r5, [pc, #56]	; (1f60 <configure_i2c+0xa0>)
    1f28:	6828      	ldr	r0, [r5, #0]
    1f2a:	4b10      	ldr	r3, [pc, #64]	; (1f6c <configure_i2c+0xac>)
    1f2c:	4798      	blx	r3
	NVIC->ISER[0] = (uint32_t)(1 << ((uint32_t)vector & 0x0000001f));
    1f2e:	231f      	movs	r3, #31
    1f30:	4018      	ands	r0, r3
    1f32:	3b1e      	subs	r3, #30
    1f34:	4083      	lsls	r3, r0
    1f36:	4a0e      	ldr	r2, [pc, #56]	; (1f70 <configure_i2c+0xb0>)
    1f38:	6013      	str	r3, [r2, #0]
#endif
	/* Start timeout if bus state is unknown */
	while (!(i2c_module->STATUS.reg & SERCOM_I2CM_STATUS_BUSSTATE(1))) {
		timeout_counter++;
		if(timeout_counter >= (module->unknown_bus_state_timeout)) {
    1f3a:	88e8      	ldrh	r0, [r5, #6]
	uint32_t timeout_counter = 0;
    1f3c:	2300      	movs	r3, #0
	while (!(i2c_module->STATUS.reg & SERCOM_I2CM_STATUS_BUSSTATE(1))) {
    1f3e:	2110      	movs	r1, #16
    1f40:	8b62      	ldrh	r2, [r4, #26]
    1f42:	420a      	tst	r2, r1
    1f44:	d104      	bne.n	1f50 <configure_i2c+0x90>
		timeout_counter++;
    1f46:	3301      	adds	r3, #1
		if(timeout_counter >= (module->unknown_bus_state_timeout)) {
    1f48:	4283      	cmp	r3, r0
    1f4a:	d3f9      	bcc.n	1f40 <configure_i2c+0x80>
			/* Timeout, force bus state to idle */
			i2c_module->STATUS.reg = SERCOM_I2CM_STATUS_BUSSTATE(1);
    1f4c:	2310      	movs	r3, #16
    1f4e:	8363      	strh	r3, [r4, #26]
	!= STATUS_OK);

	i2c_master_enable(&i2c_master_instance);
}
    1f50:	b00f      	add	sp, #60	; 0x3c
    1f52:	bd30      	pop	{r4, r5, pc}
    1f54:	00000d48 	.word	0x00000d48
    1f58:	00080003 	.word	0x00080003
    1f5c:	00090003 	.word	0x00090003
    1f60:	20000774 	.word	0x20000774
    1f64:	0000014d 	.word	0x0000014d
    1f68:	42001000 	.word	0x42001000
    1f6c:	00000fa5 	.word	0x00000fa5
    1f70:	e000e100 	.word	0xe000e100

00001f74 <configure_i2c_callbacks>:

/**
* Configure I2C Callbacks >> For reading 
*/
void configure_i2c_callbacks(void)
{
    1f74:	b510      	push	{r4, lr}
	/* Register callback function. */
// 	i2c_master_register_callback(&i2c_master_instance, i2c_write_complete_callback,	I2C_MASTER_CALLBACK_WRITE_COMPLETE);
// 	i2c_master_enable_callback(&i2c_master_instance,I2C_MASTER_CALLBACK_WRITE_COMPLETE);
	i2c_master_register_callback(&i2c_master_instance, i2c_read_complete_callback,	I2C_MASTER_CALLBACK_READ_COMPLETE);
    1f76:	4c05      	ldr	r4, [pc, #20]	; (1f8c <configure_i2c_callbacks+0x18>)
    1f78:	2201      	movs	r2, #1
    1f7a:	4905      	ldr	r1, [pc, #20]	; (1f90 <configure_i2c_callbacks+0x1c>)
    1f7c:	0020      	movs	r0, r4
    1f7e:	4b05      	ldr	r3, [pc, #20]	; (1f94 <configure_i2c_callbacks+0x20>)
    1f80:	4798      	blx	r3
	/* Sanity check */
	Assert(module);
	Assert(module->hw);

	/* Mark callback as enabled */
	module->enabled_callback |= (1 << callback_type);
    1f82:	7e63      	ldrb	r3, [r4, #25]
    1f84:	2202      	movs	r2, #2
    1f86:	4313      	orrs	r3, r2
    1f88:	7663      	strb	r3, [r4, #25]
	i2c_master_enable_callback(&i2c_master_instance,I2C_MASTER_CALLBACK_READ_COMPLETE);
}
    1f8a:	bd10      	pop	{r4, pc}
    1f8c:	20000774 	.word	0x20000774
    1f90:	00001ead 	.word	0x00001ead
    1f94:	00000659 	.word	0x00000659

00001f98 <main>:

/**
 * \APPLICATION CODE VERSION 1
 */
int main(void)
{
    1f98:	b5f0      	push	{r4, r5, r6, r7, lr}
    1f9a:	46de      	mov	lr, fp
    1f9c:	4657      	mov	r7, sl
    1f9e:	464e      	mov	r6, r9
    1fa0:	4645      	mov	r5, r8
    1fa2:	b5e0      	push	{r5, r6, r7, lr}
    1fa4:	b091      	sub	sp, #68	; 0x44
	//INITIALIZE SYSTEM PERIPHERALS
	system_init();
    1fa6:	4b32      	ldr	r3, [pc, #200]	; (2070 <STACK_SIZE+0x70>)
    1fa8:	4798      	blx	r3
	delay_init();
    1faa:	4b32      	ldr	r3, [pc, #200]	; (2074 <STACK_SIZE+0x74>)
    1fac:	4798      	blx	r3
	InitializeSerialConsole();
    1fae:	4b32      	ldr	r3, [pc, #200]	; (2078 <STACK_SIZE+0x78>)
    1fb0:	4798      	blx	r3
	cpu_irq_enable();
    1fb2:	2201      	movs	r2, #1
    1fb4:	4b31      	ldr	r3, [pc, #196]	; (207c <STACK_SIZE+0x7c>)
    1fb6:	701a      	strb	r2, [r3, #0]
    1fb8:	f3bf 8f5f 	dmb	sy
    1fbc:	b662      	cpsie	i
	system_interrupt_enable_global();
	
	/** 
	* I2C
	*/
	configure_i2c();
    1fbe:	4b30      	ldr	r3, [pc, #192]	; (2080 <STACK_SIZE+0x80>)
    1fc0:	4798      	blx	r3
	configure_i2c_callbacks();
    1fc2:	4b30      	ldr	r3, [pc, #192]	; (2084 <STACK_SIZE+0x84>)
    1fc4:	4798      	blx	r3
	
	/* Init i2c packet. */
	
	//! [write_packet]
	wr_packet.address     = SLAVE_ADDRESS;
    1fc6:	4b30      	ldr	r3, [pc, #192]	; (2088 <STACK_SIZE+0x88>)
    1fc8:	2069      	movs	r0, #105	; 0x69
    1fca:	8018      	strh	r0, [r3, #0]
	wr_packet.data_length = DATA_LENGTH;
    1fcc:	2280      	movs	r2, #128	; 0x80
    1fce:	0052      	lsls	r2, r2, #1
    1fd0:	805a      	strh	r2, [r3, #2]
	wr_packet.data        = wr_buffer;
    1fd2:	492e      	ldr	r1, [pc, #184]	; (208c <STACK_SIZE+0x8c>)
    1fd4:	6059      	str	r1, [r3, #4]
	//! [write_packet]
	
	//! [read_packet]
	rd_packet.address     = SLAVE_ADDRESS;
    1fd6:	492e      	ldr	r1, [pc, #184]	; (2090 <STACK_SIZE+0x90>)
    1fd8:	8008      	strh	r0, [r1, #0]
	rd_packet.data_length = DATA_LENGTH;
    1fda:	804a      	strh	r2, [r1, #2]
	rd_packet.data        = rd_buffer;
    1fdc:	4b2d      	ldr	r3, [pc, #180]	; (2094 <STACK_SIZE+0x94>)
    1fde:	604b      	str	r3, [r1, #4]
	//! [read_packet]
	
	//SerialConsoleWriteString("** I2C Test **\n\r");	
	i2c_master_read_packet_job(&i2c_master_instance,&rd_packet);
    1fe0:	482d      	ldr	r0, [pc, #180]	; (2098 <STACK_SIZE+0x98>)
    1fe2:	4b2e      	ldr	r3, [pc, #184]	; (209c <STACK_SIZE+0x9c>)
    1fe4:	4798      	blx	r3
				
		char readed[50];
		int j = 0;
		uint8_t camera_buffer[64];
		for (int i = 0; i < DATA_LENGTH; i++ )
    1fe6:	2300      	movs	r3, #0
    1fe8:	4698      	mov	r8, r3
		int j = 0;
    1fea:	469a      	mov	sl, r3
				SerialConsoleWriteString(readed);
				
				j++;
			}
				
			delay_ms(10);
    1fec:	4b2c      	ldr	r3, [pc, #176]	; (20a0 <STACK_SIZE+0xa0>)
    1fee:	4699      	mov	r9, r3
    1ff0:	9600      	str	r6, [sp, #0]
    1ff2:	9701      	str	r7, [sp, #4]
    1ff4:	2000      	movs	r0, #0
    1ff6:	47c8      	blx	r9
    1ff8:	0004      	movs	r4, r0
    1ffa:	2500      	movs	r5, #0
    1ffc:	0f83      	lsrs	r3, r0, #30
    1ffe:	9301      	str	r3, [sp, #4]
    2000:	0083      	lsls	r3, r0, #2
    2002:	9300      	str	r3, [sp, #0]
    2004:	9800      	ldr	r0, [sp, #0]
    2006:	9901      	ldr	r1, [sp, #4]
    2008:	1900      	adds	r0, r0, r4
    200a:	4169      	adcs	r1, r5
    200c:	1800      	adds	r0, r0, r0
    200e:	4149      	adcs	r1, r1
    2010:	4a24      	ldr	r2, [pc, #144]	; (20a4 <STACK_SIZE+0xa4>)
    2012:	2300      	movs	r3, #0
    2014:	1880      	adds	r0, r0, r2
    2016:	4159      	adcs	r1, r3
    2018:	4a23      	ldr	r2, [pc, #140]	; (20a8 <STACK_SIZE+0xa8>)
    201a:	2300      	movs	r3, #0
    201c:	4e23      	ldr	r6, [pc, #140]	; (20ac <STACK_SIZE+0xac>)
    201e:	47b0      	blx	r6
    2020:	4b23      	ldr	r3, [pc, #140]	; (20b0 <STACK_SIZE+0xb0>)
    2022:	4798      	blx	r3
		for (int i = 0; i < DATA_LENGTH; i++ )
    2024:	2301      	movs	r3, #1
    2026:	469c      	mov	ip, r3
    2028:	44e0      	add	r8, ip
    202a:	33ff      	adds	r3, #255	; 0xff
    202c:	4598      	cmp	r8, r3
    202e:	d016      	beq.n	205e <STACK_SIZE+0x5e>
			if (i > 64 && rd_packet.data[i] != 0 && i < 225)
    2030:	4643      	mov	r3, r8
    2032:	2b40      	cmp	r3, #64	; 0x40
    2034:	ddde      	ble.n	1ff4 <main+0x5c>
    2036:	4b16      	ldr	r3, [pc, #88]	; (2090 <STACK_SIZE+0x90>)
    2038:	685b      	ldr	r3, [r3, #4]
    203a:	4642      	mov	r2, r8
    203c:	5c9b      	ldrb	r3, [r3, r2]
    203e:	2b00      	cmp	r3, #0
    2040:	d0d8      	beq.n	1ff4 <main+0x5c>
    2042:	2ae0      	cmp	r2, #224	; 0xe0
    2044:	dcd6      	bgt.n	1ff4 <main+0x5c>
				sprintf(readed,"%d      %d     -\n\r", j, camera_buffer[j]);
    2046:	4652      	mov	r2, sl
    2048:	491a      	ldr	r1, [pc, #104]	; (20b4 <STACK_SIZE+0xb4>)
    204a:	a803      	add	r0, sp, #12
    204c:	4e1a      	ldr	r6, [pc, #104]	; (20b8 <STACK_SIZE+0xb8>)
    204e:	47b0      	blx	r6
				SerialConsoleWriteString(readed);
    2050:	a803      	add	r0, sp, #12
    2052:	4b1a      	ldr	r3, [pc, #104]	; (20bc <STACK_SIZE+0xbc>)
    2054:	4798      	blx	r3
				j++;
    2056:	2301      	movs	r3, #1
    2058:	469c      	mov	ip, r3
    205a:	44e2      	add	sl, ip
    205c:	e7ca      	b.n	1ff4 <main+0x5c>
// 		{
// 			sprintf(readed,"%d\n\r", rd_packet.data[i]);
// 			SerialConsoleWriteString(readed);	
// 		}
//  }
}
    205e:	2000      	movs	r0, #0
    2060:	b011      	add	sp, #68	; 0x44
    2062:	bc3c      	pop	{r2, r3, r4, r5}
    2064:	4690      	mov	r8, r2
    2066:	4699      	mov	r9, r3
    2068:	46a2      	mov	sl, r4
    206a:	46ab      	mov	fp, r5
    206c:	bdf0      	pop	{r4, r5, r6, r7, pc}
    206e:	46c0      	nop			; (mov r8, r8)
    2070:	00001d75 	.word	0x00001d75
    2074:	00000b59 	.word	0x00000b59
    2078:	00000969 	.word	0x00000969
    207c:	2000000c 	.word	0x2000000c
    2080:	00001ec1 	.word	0x00001ec1
    2084:	00001f75 	.word	0x00001f75
    2088:	20000768 	.word	0x20000768
    208c:	20000010 	.word	0x20000010
    2090:	2000079c 	.word	0x2000079c
    2094:	200001d0 	.word	0x200001d0
    2098:	20000774 	.word	0x20000774
    209c:	00000671 	.word	0x00000671
    20a0:	00001b31 	.word	0x00001b31
    20a4:	00001b57 	.word	0x00001b57
    20a8:	00001b58 	.word	0x00001b58
    20ac:	000021d9 	.word	0x000021d9
    20b0:	20000001 	.word	0x20000001
    20b4:	000045ec 	.word	0x000045ec
    20b8:	00003e9d 	.word	0x00003e9d
    20bc:	00000a91 	.word	0x00000a91

000020c0 <__udivsi3>:
    20c0:	2200      	movs	r2, #0
    20c2:	0843      	lsrs	r3, r0, #1
    20c4:	428b      	cmp	r3, r1
    20c6:	d374      	bcc.n	21b2 <__udivsi3+0xf2>
    20c8:	0903      	lsrs	r3, r0, #4
    20ca:	428b      	cmp	r3, r1
    20cc:	d35f      	bcc.n	218e <__udivsi3+0xce>
    20ce:	0a03      	lsrs	r3, r0, #8
    20d0:	428b      	cmp	r3, r1
    20d2:	d344      	bcc.n	215e <__udivsi3+0x9e>
    20d4:	0b03      	lsrs	r3, r0, #12
    20d6:	428b      	cmp	r3, r1
    20d8:	d328      	bcc.n	212c <__udivsi3+0x6c>
    20da:	0c03      	lsrs	r3, r0, #16
    20dc:	428b      	cmp	r3, r1
    20de:	d30d      	bcc.n	20fc <__udivsi3+0x3c>
    20e0:	22ff      	movs	r2, #255	; 0xff
    20e2:	0209      	lsls	r1, r1, #8
    20e4:	ba12      	rev	r2, r2
    20e6:	0c03      	lsrs	r3, r0, #16
    20e8:	428b      	cmp	r3, r1
    20ea:	d302      	bcc.n	20f2 <__udivsi3+0x32>
    20ec:	1212      	asrs	r2, r2, #8
    20ee:	0209      	lsls	r1, r1, #8
    20f0:	d065      	beq.n	21be <__udivsi3+0xfe>
    20f2:	0b03      	lsrs	r3, r0, #12
    20f4:	428b      	cmp	r3, r1
    20f6:	d319      	bcc.n	212c <__udivsi3+0x6c>
    20f8:	e000      	b.n	20fc <__udivsi3+0x3c>
    20fa:	0a09      	lsrs	r1, r1, #8
    20fc:	0bc3      	lsrs	r3, r0, #15
    20fe:	428b      	cmp	r3, r1
    2100:	d301      	bcc.n	2106 <__udivsi3+0x46>
    2102:	03cb      	lsls	r3, r1, #15
    2104:	1ac0      	subs	r0, r0, r3
    2106:	4152      	adcs	r2, r2
    2108:	0b83      	lsrs	r3, r0, #14
    210a:	428b      	cmp	r3, r1
    210c:	d301      	bcc.n	2112 <__udivsi3+0x52>
    210e:	038b      	lsls	r3, r1, #14
    2110:	1ac0      	subs	r0, r0, r3
    2112:	4152      	adcs	r2, r2
    2114:	0b43      	lsrs	r3, r0, #13
    2116:	428b      	cmp	r3, r1
    2118:	d301      	bcc.n	211e <__udivsi3+0x5e>
    211a:	034b      	lsls	r3, r1, #13
    211c:	1ac0      	subs	r0, r0, r3
    211e:	4152      	adcs	r2, r2
    2120:	0b03      	lsrs	r3, r0, #12
    2122:	428b      	cmp	r3, r1
    2124:	d301      	bcc.n	212a <__udivsi3+0x6a>
    2126:	030b      	lsls	r3, r1, #12
    2128:	1ac0      	subs	r0, r0, r3
    212a:	4152      	adcs	r2, r2
    212c:	0ac3      	lsrs	r3, r0, #11
    212e:	428b      	cmp	r3, r1
    2130:	d301      	bcc.n	2136 <__udivsi3+0x76>
    2132:	02cb      	lsls	r3, r1, #11
    2134:	1ac0      	subs	r0, r0, r3
    2136:	4152      	adcs	r2, r2
    2138:	0a83      	lsrs	r3, r0, #10
    213a:	428b      	cmp	r3, r1
    213c:	d301      	bcc.n	2142 <__udivsi3+0x82>
    213e:	028b      	lsls	r3, r1, #10
    2140:	1ac0      	subs	r0, r0, r3
    2142:	4152      	adcs	r2, r2
    2144:	0a43      	lsrs	r3, r0, #9
    2146:	428b      	cmp	r3, r1
    2148:	d301      	bcc.n	214e <__udivsi3+0x8e>
    214a:	024b      	lsls	r3, r1, #9
    214c:	1ac0      	subs	r0, r0, r3
    214e:	4152      	adcs	r2, r2
    2150:	0a03      	lsrs	r3, r0, #8
    2152:	428b      	cmp	r3, r1
    2154:	d301      	bcc.n	215a <__udivsi3+0x9a>
    2156:	020b      	lsls	r3, r1, #8
    2158:	1ac0      	subs	r0, r0, r3
    215a:	4152      	adcs	r2, r2
    215c:	d2cd      	bcs.n	20fa <__udivsi3+0x3a>
    215e:	09c3      	lsrs	r3, r0, #7
    2160:	428b      	cmp	r3, r1
    2162:	d301      	bcc.n	2168 <__udivsi3+0xa8>
    2164:	01cb      	lsls	r3, r1, #7
    2166:	1ac0      	subs	r0, r0, r3
    2168:	4152      	adcs	r2, r2
    216a:	0983      	lsrs	r3, r0, #6
    216c:	428b      	cmp	r3, r1
    216e:	d301      	bcc.n	2174 <__udivsi3+0xb4>
    2170:	018b      	lsls	r3, r1, #6
    2172:	1ac0      	subs	r0, r0, r3
    2174:	4152      	adcs	r2, r2
    2176:	0943      	lsrs	r3, r0, #5
    2178:	428b      	cmp	r3, r1
    217a:	d301      	bcc.n	2180 <__udivsi3+0xc0>
    217c:	014b      	lsls	r3, r1, #5
    217e:	1ac0      	subs	r0, r0, r3
    2180:	4152      	adcs	r2, r2
    2182:	0903      	lsrs	r3, r0, #4
    2184:	428b      	cmp	r3, r1
    2186:	d301      	bcc.n	218c <__udivsi3+0xcc>
    2188:	010b      	lsls	r3, r1, #4
    218a:	1ac0      	subs	r0, r0, r3
    218c:	4152      	adcs	r2, r2
    218e:	08c3      	lsrs	r3, r0, #3
    2190:	428b      	cmp	r3, r1
    2192:	d301      	bcc.n	2198 <__udivsi3+0xd8>
    2194:	00cb      	lsls	r3, r1, #3
    2196:	1ac0      	subs	r0, r0, r3
    2198:	4152      	adcs	r2, r2
    219a:	0883      	lsrs	r3, r0, #2
    219c:	428b      	cmp	r3, r1
    219e:	d301      	bcc.n	21a4 <__udivsi3+0xe4>
    21a0:	008b      	lsls	r3, r1, #2
    21a2:	1ac0      	subs	r0, r0, r3
    21a4:	4152      	adcs	r2, r2
    21a6:	0843      	lsrs	r3, r0, #1
    21a8:	428b      	cmp	r3, r1
    21aa:	d301      	bcc.n	21b0 <__udivsi3+0xf0>
    21ac:	004b      	lsls	r3, r1, #1
    21ae:	1ac0      	subs	r0, r0, r3
    21b0:	4152      	adcs	r2, r2
    21b2:	1a41      	subs	r1, r0, r1
    21b4:	d200      	bcs.n	21b8 <__udivsi3+0xf8>
    21b6:	4601      	mov	r1, r0
    21b8:	4152      	adcs	r2, r2
    21ba:	4610      	mov	r0, r2
    21bc:	4770      	bx	lr
    21be:	e7ff      	b.n	21c0 <__udivsi3+0x100>
    21c0:	b501      	push	{r0, lr}
    21c2:	2000      	movs	r0, #0
    21c4:	f000 f806 	bl	21d4 <__aeabi_idiv0>
    21c8:	bd02      	pop	{r1, pc}
    21ca:	46c0      	nop			; (mov r8, r8)

000021cc <__aeabi_uidivmod>:
    21cc:	2900      	cmp	r1, #0
    21ce:	d0f7      	beq.n	21c0 <__udivsi3+0x100>
    21d0:	e776      	b.n	20c0 <__udivsi3>
    21d2:	4770      	bx	lr

000021d4 <__aeabi_idiv0>:
    21d4:	4770      	bx	lr
    21d6:	46c0      	nop			; (mov r8, r8)

000021d8 <__aeabi_uldivmod>:
    21d8:	2b00      	cmp	r3, #0
    21da:	d111      	bne.n	2200 <__aeabi_uldivmod+0x28>
    21dc:	2a00      	cmp	r2, #0
    21de:	d10f      	bne.n	2200 <__aeabi_uldivmod+0x28>
    21e0:	2900      	cmp	r1, #0
    21e2:	d100      	bne.n	21e6 <__aeabi_uldivmod+0xe>
    21e4:	2800      	cmp	r0, #0
    21e6:	d002      	beq.n	21ee <__aeabi_uldivmod+0x16>
    21e8:	2100      	movs	r1, #0
    21ea:	43c9      	mvns	r1, r1
    21ec:	1c08      	adds	r0, r1, #0
    21ee:	b407      	push	{r0, r1, r2}
    21f0:	4802      	ldr	r0, [pc, #8]	; (21fc <__aeabi_uldivmod+0x24>)
    21f2:	a102      	add	r1, pc, #8	; (adr r1, 21fc <__aeabi_uldivmod+0x24>)
    21f4:	1840      	adds	r0, r0, r1
    21f6:	9002      	str	r0, [sp, #8]
    21f8:	bd03      	pop	{r0, r1, pc}
    21fa:	46c0      	nop			; (mov r8, r8)
    21fc:	ffffffd9 	.word	0xffffffd9
    2200:	b403      	push	{r0, r1}
    2202:	4668      	mov	r0, sp
    2204:	b501      	push	{r0, lr}
    2206:	9802      	ldr	r0, [sp, #8]
    2208:	f000 f830 	bl	226c <__udivmoddi4>
    220c:	9b01      	ldr	r3, [sp, #4]
    220e:	469e      	mov	lr, r3
    2210:	b002      	add	sp, #8
    2212:	bc0c      	pop	{r2, r3}
    2214:	4770      	bx	lr
    2216:	46c0      	nop			; (mov r8, r8)

00002218 <__aeabi_lmul>:
    2218:	b5f0      	push	{r4, r5, r6, r7, lr}
    221a:	46ce      	mov	lr, r9
    221c:	4647      	mov	r7, r8
    221e:	0415      	lsls	r5, r2, #16
    2220:	0c2d      	lsrs	r5, r5, #16
    2222:	002e      	movs	r6, r5
    2224:	b580      	push	{r7, lr}
    2226:	0407      	lsls	r7, r0, #16
    2228:	0c14      	lsrs	r4, r2, #16
    222a:	0c3f      	lsrs	r7, r7, #16
    222c:	4699      	mov	r9, r3
    222e:	0c03      	lsrs	r3, r0, #16
    2230:	437e      	muls	r6, r7
    2232:	435d      	muls	r5, r3
    2234:	4367      	muls	r7, r4
    2236:	4363      	muls	r3, r4
    2238:	197f      	adds	r7, r7, r5
    223a:	0c34      	lsrs	r4, r6, #16
    223c:	19e4      	adds	r4, r4, r7
    223e:	469c      	mov	ip, r3
    2240:	42a5      	cmp	r5, r4
    2242:	d903      	bls.n	224c <__aeabi_lmul+0x34>
    2244:	2380      	movs	r3, #128	; 0x80
    2246:	025b      	lsls	r3, r3, #9
    2248:	4698      	mov	r8, r3
    224a:	44c4      	add	ip, r8
    224c:	464b      	mov	r3, r9
    224e:	4351      	muls	r1, r2
    2250:	4343      	muls	r3, r0
    2252:	0436      	lsls	r6, r6, #16
    2254:	0c36      	lsrs	r6, r6, #16
    2256:	0c25      	lsrs	r5, r4, #16
    2258:	0424      	lsls	r4, r4, #16
    225a:	4465      	add	r5, ip
    225c:	19a4      	adds	r4, r4, r6
    225e:	1859      	adds	r1, r3, r1
    2260:	1949      	adds	r1, r1, r5
    2262:	0020      	movs	r0, r4
    2264:	bc0c      	pop	{r2, r3}
    2266:	4690      	mov	r8, r2
    2268:	4699      	mov	r9, r3
    226a:	bdf0      	pop	{r4, r5, r6, r7, pc}

0000226c <__udivmoddi4>:
    226c:	b5f0      	push	{r4, r5, r6, r7, lr}
    226e:	4657      	mov	r7, sl
    2270:	464e      	mov	r6, r9
    2272:	4645      	mov	r5, r8
    2274:	46de      	mov	lr, fp
    2276:	b5e0      	push	{r5, r6, r7, lr}
    2278:	0004      	movs	r4, r0
    227a:	b083      	sub	sp, #12
    227c:	000d      	movs	r5, r1
    227e:	4692      	mov	sl, r2
    2280:	4699      	mov	r9, r3
    2282:	428b      	cmp	r3, r1
    2284:	d82f      	bhi.n	22e6 <__udivmoddi4+0x7a>
    2286:	d02c      	beq.n	22e2 <__udivmoddi4+0x76>
    2288:	4649      	mov	r1, r9
    228a:	4650      	mov	r0, sl
    228c:	f001 fd12 	bl	3cb4 <__clzdi2>
    2290:	0029      	movs	r1, r5
    2292:	0006      	movs	r6, r0
    2294:	0020      	movs	r0, r4
    2296:	f001 fd0d 	bl	3cb4 <__clzdi2>
    229a:	1a33      	subs	r3, r6, r0
    229c:	4698      	mov	r8, r3
    229e:	3b20      	subs	r3, #32
    22a0:	469b      	mov	fp, r3
    22a2:	d500      	bpl.n	22a6 <__udivmoddi4+0x3a>
    22a4:	e074      	b.n	2390 <__udivmoddi4+0x124>
    22a6:	4653      	mov	r3, sl
    22a8:	465a      	mov	r2, fp
    22aa:	4093      	lsls	r3, r2
    22ac:	001f      	movs	r7, r3
    22ae:	4653      	mov	r3, sl
    22b0:	4642      	mov	r2, r8
    22b2:	4093      	lsls	r3, r2
    22b4:	001e      	movs	r6, r3
    22b6:	42af      	cmp	r7, r5
    22b8:	d829      	bhi.n	230e <__udivmoddi4+0xa2>
    22ba:	d026      	beq.n	230a <__udivmoddi4+0x9e>
    22bc:	465b      	mov	r3, fp
    22be:	1ba4      	subs	r4, r4, r6
    22c0:	41bd      	sbcs	r5, r7
    22c2:	2b00      	cmp	r3, #0
    22c4:	da00      	bge.n	22c8 <__udivmoddi4+0x5c>
    22c6:	e079      	b.n	23bc <__udivmoddi4+0x150>
    22c8:	2200      	movs	r2, #0
    22ca:	2300      	movs	r3, #0
    22cc:	9200      	str	r2, [sp, #0]
    22ce:	9301      	str	r3, [sp, #4]
    22d0:	2301      	movs	r3, #1
    22d2:	465a      	mov	r2, fp
    22d4:	4093      	lsls	r3, r2
    22d6:	9301      	str	r3, [sp, #4]
    22d8:	2301      	movs	r3, #1
    22da:	4642      	mov	r2, r8
    22dc:	4093      	lsls	r3, r2
    22de:	9300      	str	r3, [sp, #0]
    22e0:	e019      	b.n	2316 <__udivmoddi4+0xaa>
    22e2:	4282      	cmp	r2, r0
    22e4:	d9d0      	bls.n	2288 <__udivmoddi4+0x1c>
    22e6:	2200      	movs	r2, #0
    22e8:	2300      	movs	r3, #0
    22ea:	9200      	str	r2, [sp, #0]
    22ec:	9301      	str	r3, [sp, #4]
    22ee:	9b0c      	ldr	r3, [sp, #48]	; 0x30
    22f0:	2b00      	cmp	r3, #0
    22f2:	d001      	beq.n	22f8 <__udivmoddi4+0x8c>
    22f4:	601c      	str	r4, [r3, #0]
    22f6:	605d      	str	r5, [r3, #4]
    22f8:	9800      	ldr	r0, [sp, #0]
    22fa:	9901      	ldr	r1, [sp, #4]
    22fc:	b003      	add	sp, #12
    22fe:	bc3c      	pop	{r2, r3, r4, r5}
    2300:	4690      	mov	r8, r2
    2302:	4699      	mov	r9, r3
    2304:	46a2      	mov	sl, r4
    2306:	46ab      	mov	fp, r5
    2308:	bdf0      	pop	{r4, r5, r6, r7, pc}
    230a:	42a3      	cmp	r3, r4
    230c:	d9d6      	bls.n	22bc <__udivmoddi4+0x50>
    230e:	2200      	movs	r2, #0
    2310:	2300      	movs	r3, #0
    2312:	9200      	str	r2, [sp, #0]
    2314:	9301      	str	r3, [sp, #4]
    2316:	4643      	mov	r3, r8
    2318:	2b00      	cmp	r3, #0
    231a:	d0e8      	beq.n	22ee <__udivmoddi4+0x82>
    231c:	07fb      	lsls	r3, r7, #31
    231e:	0872      	lsrs	r2, r6, #1
    2320:	431a      	orrs	r2, r3
    2322:	4646      	mov	r6, r8
    2324:	087b      	lsrs	r3, r7, #1
    2326:	e00e      	b.n	2346 <__udivmoddi4+0xda>
    2328:	42ab      	cmp	r3, r5
    232a:	d101      	bne.n	2330 <__udivmoddi4+0xc4>
    232c:	42a2      	cmp	r2, r4
    232e:	d80c      	bhi.n	234a <__udivmoddi4+0xde>
    2330:	1aa4      	subs	r4, r4, r2
    2332:	419d      	sbcs	r5, r3
    2334:	2001      	movs	r0, #1
    2336:	1924      	adds	r4, r4, r4
    2338:	416d      	adcs	r5, r5
    233a:	2100      	movs	r1, #0
    233c:	3e01      	subs	r6, #1
    233e:	1824      	adds	r4, r4, r0
    2340:	414d      	adcs	r5, r1
    2342:	2e00      	cmp	r6, #0
    2344:	d006      	beq.n	2354 <__udivmoddi4+0xe8>
    2346:	42ab      	cmp	r3, r5
    2348:	d9ee      	bls.n	2328 <__udivmoddi4+0xbc>
    234a:	3e01      	subs	r6, #1
    234c:	1924      	adds	r4, r4, r4
    234e:	416d      	adcs	r5, r5
    2350:	2e00      	cmp	r6, #0
    2352:	d1f8      	bne.n	2346 <__udivmoddi4+0xda>
    2354:	465b      	mov	r3, fp
    2356:	9800      	ldr	r0, [sp, #0]
    2358:	9901      	ldr	r1, [sp, #4]
    235a:	1900      	adds	r0, r0, r4
    235c:	4169      	adcs	r1, r5
    235e:	2b00      	cmp	r3, #0
    2360:	db22      	blt.n	23a8 <__udivmoddi4+0x13c>
    2362:	002b      	movs	r3, r5
    2364:	465a      	mov	r2, fp
    2366:	40d3      	lsrs	r3, r2
    2368:	002a      	movs	r2, r5
    236a:	4644      	mov	r4, r8
    236c:	40e2      	lsrs	r2, r4
    236e:	001c      	movs	r4, r3
    2370:	465b      	mov	r3, fp
    2372:	0015      	movs	r5, r2
    2374:	2b00      	cmp	r3, #0
    2376:	db2c      	blt.n	23d2 <__udivmoddi4+0x166>
    2378:	0026      	movs	r6, r4
    237a:	409e      	lsls	r6, r3
    237c:	0033      	movs	r3, r6
    237e:	0026      	movs	r6, r4
    2380:	4647      	mov	r7, r8
    2382:	40be      	lsls	r6, r7
    2384:	0032      	movs	r2, r6
    2386:	1a80      	subs	r0, r0, r2
    2388:	4199      	sbcs	r1, r3
    238a:	9000      	str	r0, [sp, #0]
    238c:	9101      	str	r1, [sp, #4]
    238e:	e7ae      	b.n	22ee <__udivmoddi4+0x82>
    2390:	4642      	mov	r2, r8
    2392:	2320      	movs	r3, #32
    2394:	1a9b      	subs	r3, r3, r2
    2396:	4652      	mov	r2, sl
    2398:	40da      	lsrs	r2, r3
    239a:	4641      	mov	r1, r8
    239c:	0013      	movs	r3, r2
    239e:	464a      	mov	r2, r9
    23a0:	408a      	lsls	r2, r1
    23a2:	0017      	movs	r7, r2
    23a4:	431f      	orrs	r7, r3
    23a6:	e782      	b.n	22ae <__udivmoddi4+0x42>
    23a8:	4642      	mov	r2, r8
    23aa:	2320      	movs	r3, #32
    23ac:	1a9b      	subs	r3, r3, r2
    23ae:	002a      	movs	r2, r5
    23b0:	4646      	mov	r6, r8
    23b2:	409a      	lsls	r2, r3
    23b4:	0023      	movs	r3, r4
    23b6:	40f3      	lsrs	r3, r6
    23b8:	4313      	orrs	r3, r2
    23ba:	e7d5      	b.n	2368 <__udivmoddi4+0xfc>
    23bc:	4642      	mov	r2, r8
    23be:	2320      	movs	r3, #32
    23c0:	2100      	movs	r1, #0
    23c2:	1a9b      	subs	r3, r3, r2
    23c4:	2200      	movs	r2, #0
    23c6:	9100      	str	r1, [sp, #0]
    23c8:	9201      	str	r2, [sp, #4]
    23ca:	2201      	movs	r2, #1
    23cc:	40da      	lsrs	r2, r3
    23ce:	9201      	str	r2, [sp, #4]
    23d0:	e782      	b.n	22d8 <__udivmoddi4+0x6c>
    23d2:	4642      	mov	r2, r8
    23d4:	2320      	movs	r3, #32
    23d6:	0026      	movs	r6, r4
    23d8:	1a9b      	subs	r3, r3, r2
    23da:	40de      	lsrs	r6, r3
    23dc:	002f      	movs	r7, r5
    23de:	46b4      	mov	ip, r6
    23e0:	4097      	lsls	r7, r2
    23e2:	4666      	mov	r6, ip
    23e4:	003b      	movs	r3, r7
    23e6:	4333      	orrs	r3, r6
    23e8:	e7c9      	b.n	237e <__udivmoddi4+0x112>
    23ea:	46c0      	nop			; (mov r8, r8)

000023ec <__aeabi_dadd>:
    23ec:	b5f8      	push	{r3, r4, r5, r6, r7, lr}
    23ee:	4645      	mov	r5, r8
    23f0:	46de      	mov	lr, fp
    23f2:	4657      	mov	r7, sl
    23f4:	464e      	mov	r6, r9
    23f6:	030c      	lsls	r4, r1, #12
    23f8:	b5e0      	push	{r5, r6, r7, lr}
    23fa:	004e      	lsls	r6, r1, #1
    23fc:	0fc9      	lsrs	r1, r1, #31
    23fe:	4688      	mov	r8, r1
    2400:	000d      	movs	r5, r1
    2402:	0a61      	lsrs	r1, r4, #9
    2404:	0f44      	lsrs	r4, r0, #29
    2406:	430c      	orrs	r4, r1
    2408:	00c7      	lsls	r7, r0, #3
    240a:	0319      	lsls	r1, r3, #12
    240c:	0058      	lsls	r0, r3, #1
    240e:	0fdb      	lsrs	r3, r3, #31
    2410:	469b      	mov	fp, r3
    2412:	0a4b      	lsrs	r3, r1, #9
    2414:	0f51      	lsrs	r1, r2, #29
    2416:	430b      	orrs	r3, r1
    2418:	0d76      	lsrs	r6, r6, #21
    241a:	0d40      	lsrs	r0, r0, #21
    241c:	0019      	movs	r1, r3
    241e:	00d2      	lsls	r2, r2, #3
    2420:	45d8      	cmp	r8, fp
    2422:	d100      	bne.n	2426 <__aeabi_dadd+0x3a>
    2424:	e0ae      	b.n	2584 <__aeabi_dadd+0x198>
    2426:	1a35      	subs	r5, r6, r0
    2428:	2d00      	cmp	r5, #0
    242a:	dc00      	bgt.n	242e <__aeabi_dadd+0x42>
    242c:	e0f6      	b.n	261c <__aeabi_dadd+0x230>
    242e:	2800      	cmp	r0, #0
    2430:	d10f      	bne.n	2452 <__aeabi_dadd+0x66>
    2432:	4313      	orrs	r3, r2
    2434:	d100      	bne.n	2438 <__aeabi_dadd+0x4c>
    2436:	e0db      	b.n	25f0 <__aeabi_dadd+0x204>
    2438:	1e6b      	subs	r3, r5, #1
    243a:	2b00      	cmp	r3, #0
    243c:	d000      	beq.n	2440 <__aeabi_dadd+0x54>
    243e:	e137      	b.n	26b0 <__aeabi_dadd+0x2c4>
    2440:	1aba      	subs	r2, r7, r2
    2442:	4297      	cmp	r7, r2
    2444:	41bf      	sbcs	r7, r7
    2446:	1a64      	subs	r4, r4, r1
    2448:	427f      	negs	r7, r7
    244a:	1be4      	subs	r4, r4, r7
    244c:	2601      	movs	r6, #1
    244e:	0017      	movs	r7, r2
    2450:	e024      	b.n	249c <__aeabi_dadd+0xb0>
    2452:	4bc6      	ldr	r3, [pc, #792]	; (276c <__aeabi_dadd+0x380>)
    2454:	429e      	cmp	r6, r3
    2456:	d04d      	beq.n	24f4 <__aeabi_dadd+0x108>
    2458:	2380      	movs	r3, #128	; 0x80
    245a:	041b      	lsls	r3, r3, #16
    245c:	4319      	orrs	r1, r3
    245e:	2d38      	cmp	r5, #56	; 0x38
    2460:	dd00      	ble.n	2464 <__aeabi_dadd+0x78>
    2462:	e107      	b.n	2674 <__aeabi_dadd+0x288>
    2464:	2d1f      	cmp	r5, #31
    2466:	dd00      	ble.n	246a <__aeabi_dadd+0x7e>
    2468:	e138      	b.n	26dc <__aeabi_dadd+0x2f0>
    246a:	2020      	movs	r0, #32
    246c:	1b43      	subs	r3, r0, r5
    246e:	469a      	mov	sl, r3
    2470:	000b      	movs	r3, r1
    2472:	4650      	mov	r0, sl
    2474:	4083      	lsls	r3, r0
    2476:	4699      	mov	r9, r3
    2478:	0013      	movs	r3, r2
    247a:	4648      	mov	r0, r9
    247c:	40eb      	lsrs	r3, r5
    247e:	4318      	orrs	r0, r3
    2480:	0003      	movs	r3, r0
    2482:	4650      	mov	r0, sl
    2484:	4082      	lsls	r2, r0
    2486:	1e50      	subs	r0, r2, #1
    2488:	4182      	sbcs	r2, r0
    248a:	40e9      	lsrs	r1, r5
    248c:	431a      	orrs	r2, r3
    248e:	1aba      	subs	r2, r7, r2
    2490:	1a61      	subs	r1, r4, r1
    2492:	4297      	cmp	r7, r2
    2494:	41a4      	sbcs	r4, r4
    2496:	0017      	movs	r7, r2
    2498:	4264      	negs	r4, r4
    249a:	1b0c      	subs	r4, r1, r4
    249c:	0223      	lsls	r3, r4, #8
    249e:	d562      	bpl.n	2566 <__aeabi_dadd+0x17a>
    24a0:	0264      	lsls	r4, r4, #9
    24a2:	0a65      	lsrs	r5, r4, #9
    24a4:	2d00      	cmp	r5, #0
    24a6:	d100      	bne.n	24aa <__aeabi_dadd+0xbe>
    24a8:	e0df      	b.n	266a <__aeabi_dadd+0x27e>
    24aa:	0028      	movs	r0, r5
    24ac:	f001 fbe4 	bl	3c78 <__clzsi2>
    24b0:	0003      	movs	r3, r0
    24b2:	3b08      	subs	r3, #8
    24b4:	2b1f      	cmp	r3, #31
    24b6:	dd00      	ble.n	24ba <__aeabi_dadd+0xce>
    24b8:	e0d2      	b.n	2660 <__aeabi_dadd+0x274>
    24ba:	2220      	movs	r2, #32
    24bc:	003c      	movs	r4, r7
    24be:	1ad2      	subs	r2, r2, r3
    24c0:	409d      	lsls	r5, r3
    24c2:	40d4      	lsrs	r4, r2
    24c4:	409f      	lsls	r7, r3
    24c6:	4325      	orrs	r5, r4
    24c8:	429e      	cmp	r6, r3
    24ca:	dd00      	ble.n	24ce <__aeabi_dadd+0xe2>
    24cc:	e0c4      	b.n	2658 <__aeabi_dadd+0x26c>
    24ce:	1b9e      	subs	r6, r3, r6
    24d0:	1c73      	adds	r3, r6, #1
    24d2:	2b1f      	cmp	r3, #31
    24d4:	dd00      	ble.n	24d8 <__aeabi_dadd+0xec>
    24d6:	e0f1      	b.n	26bc <__aeabi_dadd+0x2d0>
    24d8:	2220      	movs	r2, #32
    24da:	0038      	movs	r0, r7
    24dc:	0029      	movs	r1, r5
    24de:	1ad2      	subs	r2, r2, r3
    24e0:	40d8      	lsrs	r0, r3
    24e2:	4091      	lsls	r1, r2
    24e4:	4097      	lsls	r7, r2
    24e6:	002c      	movs	r4, r5
    24e8:	4301      	orrs	r1, r0
    24ea:	1e78      	subs	r0, r7, #1
    24ec:	4187      	sbcs	r7, r0
    24ee:	40dc      	lsrs	r4, r3
    24f0:	2600      	movs	r6, #0
    24f2:	430f      	orrs	r7, r1
    24f4:	077b      	lsls	r3, r7, #29
    24f6:	d009      	beq.n	250c <__aeabi_dadd+0x120>
    24f8:	230f      	movs	r3, #15
    24fa:	403b      	ands	r3, r7
    24fc:	2b04      	cmp	r3, #4
    24fe:	d005      	beq.n	250c <__aeabi_dadd+0x120>
    2500:	1d3b      	adds	r3, r7, #4
    2502:	42bb      	cmp	r3, r7
    2504:	41bf      	sbcs	r7, r7
    2506:	427f      	negs	r7, r7
    2508:	19e4      	adds	r4, r4, r7
    250a:	001f      	movs	r7, r3
    250c:	0223      	lsls	r3, r4, #8
    250e:	d52c      	bpl.n	256a <__aeabi_dadd+0x17e>
    2510:	4b96      	ldr	r3, [pc, #600]	; (276c <__aeabi_dadd+0x380>)
    2512:	3601      	adds	r6, #1
    2514:	429e      	cmp	r6, r3
    2516:	d100      	bne.n	251a <__aeabi_dadd+0x12e>
    2518:	e09a      	b.n	2650 <__aeabi_dadd+0x264>
    251a:	4645      	mov	r5, r8
    251c:	4b94      	ldr	r3, [pc, #592]	; (2770 <__aeabi_dadd+0x384>)
    251e:	08ff      	lsrs	r7, r7, #3
    2520:	401c      	ands	r4, r3
    2522:	0760      	lsls	r0, r4, #29
    2524:	0576      	lsls	r6, r6, #21
    2526:	0264      	lsls	r4, r4, #9
    2528:	4307      	orrs	r7, r0
    252a:	0b24      	lsrs	r4, r4, #12
    252c:	0d76      	lsrs	r6, r6, #21
    252e:	2100      	movs	r1, #0
    2530:	0324      	lsls	r4, r4, #12
    2532:	0b23      	lsrs	r3, r4, #12
    2534:	0d0c      	lsrs	r4, r1, #20
    2536:	4a8f      	ldr	r2, [pc, #572]	; (2774 <__aeabi_dadd+0x388>)
    2538:	0524      	lsls	r4, r4, #20
    253a:	431c      	orrs	r4, r3
    253c:	4014      	ands	r4, r2
    253e:	0533      	lsls	r3, r6, #20
    2540:	4323      	orrs	r3, r4
    2542:	005b      	lsls	r3, r3, #1
    2544:	07ed      	lsls	r5, r5, #31
    2546:	085b      	lsrs	r3, r3, #1
    2548:	432b      	orrs	r3, r5
    254a:	0038      	movs	r0, r7
    254c:	0019      	movs	r1, r3
    254e:	bc3c      	pop	{r2, r3, r4, r5}
    2550:	4690      	mov	r8, r2
    2552:	4699      	mov	r9, r3
    2554:	46a2      	mov	sl, r4
    2556:	46ab      	mov	fp, r5
    2558:	bdf8      	pop	{r3, r4, r5, r6, r7, pc}
    255a:	4664      	mov	r4, ip
    255c:	4304      	orrs	r4, r0
    255e:	d100      	bne.n	2562 <__aeabi_dadd+0x176>
    2560:	e211      	b.n	2986 <__aeabi_dadd+0x59a>
    2562:	0004      	movs	r4, r0
    2564:	4667      	mov	r7, ip
    2566:	077b      	lsls	r3, r7, #29
    2568:	d1c6      	bne.n	24f8 <__aeabi_dadd+0x10c>
    256a:	4645      	mov	r5, r8
    256c:	0760      	lsls	r0, r4, #29
    256e:	08ff      	lsrs	r7, r7, #3
    2570:	4307      	orrs	r7, r0
    2572:	08e4      	lsrs	r4, r4, #3
    2574:	4b7d      	ldr	r3, [pc, #500]	; (276c <__aeabi_dadd+0x380>)
    2576:	429e      	cmp	r6, r3
    2578:	d030      	beq.n	25dc <__aeabi_dadd+0x1f0>
    257a:	0324      	lsls	r4, r4, #12
    257c:	0576      	lsls	r6, r6, #21
    257e:	0b24      	lsrs	r4, r4, #12
    2580:	0d76      	lsrs	r6, r6, #21
    2582:	e7d4      	b.n	252e <__aeabi_dadd+0x142>
    2584:	1a33      	subs	r3, r6, r0
    2586:	469a      	mov	sl, r3
    2588:	2b00      	cmp	r3, #0
    258a:	dd78      	ble.n	267e <__aeabi_dadd+0x292>
    258c:	2800      	cmp	r0, #0
    258e:	d031      	beq.n	25f4 <__aeabi_dadd+0x208>
    2590:	4876      	ldr	r0, [pc, #472]	; (276c <__aeabi_dadd+0x380>)
    2592:	4286      	cmp	r6, r0
    2594:	d0ae      	beq.n	24f4 <__aeabi_dadd+0x108>
    2596:	2080      	movs	r0, #128	; 0x80
    2598:	0400      	lsls	r0, r0, #16
    259a:	4301      	orrs	r1, r0
    259c:	4653      	mov	r3, sl
    259e:	2b38      	cmp	r3, #56	; 0x38
    25a0:	dc00      	bgt.n	25a4 <__aeabi_dadd+0x1b8>
    25a2:	e0e9      	b.n	2778 <__aeabi_dadd+0x38c>
    25a4:	430a      	orrs	r2, r1
    25a6:	1e51      	subs	r1, r2, #1
    25a8:	418a      	sbcs	r2, r1
    25aa:	2100      	movs	r1, #0
    25ac:	19d2      	adds	r2, r2, r7
    25ae:	42ba      	cmp	r2, r7
    25b0:	41bf      	sbcs	r7, r7
    25b2:	1909      	adds	r1, r1, r4
    25b4:	427c      	negs	r4, r7
    25b6:	0017      	movs	r7, r2
    25b8:	190c      	adds	r4, r1, r4
    25ba:	0223      	lsls	r3, r4, #8
    25bc:	d5d3      	bpl.n	2566 <__aeabi_dadd+0x17a>
    25be:	4b6b      	ldr	r3, [pc, #428]	; (276c <__aeabi_dadd+0x380>)
    25c0:	3601      	adds	r6, #1
    25c2:	429e      	cmp	r6, r3
    25c4:	d100      	bne.n	25c8 <__aeabi_dadd+0x1dc>
    25c6:	e13a      	b.n	283e <__aeabi_dadd+0x452>
    25c8:	2001      	movs	r0, #1
    25ca:	4b69      	ldr	r3, [pc, #420]	; (2770 <__aeabi_dadd+0x384>)
    25cc:	401c      	ands	r4, r3
    25ce:	087b      	lsrs	r3, r7, #1
    25d0:	4007      	ands	r7, r0
    25d2:	431f      	orrs	r7, r3
    25d4:	07e0      	lsls	r0, r4, #31
    25d6:	4307      	orrs	r7, r0
    25d8:	0864      	lsrs	r4, r4, #1
    25da:	e78b      	b.n	24f4 <__aeabi_dadd+0x108>
    25dc:	0023      	movs	r3, r4
    25de:	433b      	orrs	r3, r7
    25e0:	d100      	bne.n	25e4 <__aeabi_dadd+0x1f8>
    25e2:	e1cb      	b.n	297c <__aeabi_dadd+0x590>
    25e4:	2280      	movs	r2, #128	; 0x80
    25e6:	0312      	lsls	r2, r2, #12
    25e8:	4314      	orrs	r4, r2
    25ea:	0324      	lsls	r4, r4, #12
    25ec:	0b24      	lsrs	r4, r4, #12
    25ee:	e79e      	b.n	252e <__aeabi_dadd+0x142>
    25f0:	002e      	movs	r6, r5
    25f2:	e77f      	b.n	24f4 <__aeabi_dadd+0x108>
    25f4:	0008      	movs	r0, r1
    25f6:	4310      	orrs	r0, r2
    25f8:	d100      	bne.n	25fc <__aeabi_dadd+0x210>
    25fa:	e0b4      	b.n	2766 <__aeabi_dadd+0x37a>
    25fc:	1e58      	subs	r0, r3, #1
    25fe:	2800      	cmp	r0, #0
    2600:	d000      	beq.n	2604 <__aeabi_dadd+0x218>
    2602:	e0de      	b.n	27c2 <__aeabi_dadd+0x3d6>
    2604:	18ba      	adds	r2, r7, r2
    2606:	42ba      	cmp	r2, r7
    2608:	419b      	sbcs	r3, r3
    260a:	1864      	adds	r4, r4, r1
    260c:	425b      	negs	r3, r3
    260e:	18e4      	adds	r4, r4, r3
    2610:	0017      	movs	r7, r2
    2612:	2601      	movs	r6, #1
    2614:	0223      	lsls	r3, r4, #8
    2616:	d5a6      	bpl.n	2566 <__aeabi_dadd+0x17a>
    2618:	2602      	movs	r6, #2
    261a:	e7d5      	b.n	25c8 <__aeabi_dadd+0x1dc>
    261c:	2d00      	cmp	r5, #0
    261e:	d16e      	bne.n	26fe <__aeabi_dadd+0x312>
    2620:	1c70      	adds	r0, r6, #1
    2622:	0540      	lsls	r0, r0, #21
    2624:	0d40      	lsrs	r0, r0, #21
    2626:	2801      	cmp	r0, #1
    2628:	dc00      	bgt.n	262c <__aeabi_dadd+0x240>
    262a:	e0f9      	b.n	2820 <__aeabi_dadd+0x434>
    262c:	1ab8      	subs	r0, r7, r2
    262e:	4684      	mov	ip, r0
    2630:	4287      	cmp	r7, r0
    2632:	4180      	sbcs	r0, r0
    2634:	1ae5      	subs	r5, r4, r3
    2636:	4240      	negs	r0, r0
    2638:	1a2d      	subs	r5, r5, r0
    263a:	0228      	lsls	r0, r5, #8
    263c:	d400      	bmi.n	2640 <__aeabi_dadd+0x254>
    263e:	e089      	b.n	2754 <__aeabi_dadd+0x368>
    2640:	1bd7      	subs	r7, r2, r7
    2642:	42ba      	cmp	r2, r7
    2644:	4192      	sbcs	r2, r2
    2646:	1b1c      	subs	r4, r3, r4
    2648:	4252      	negs	r2, r2
    264a:	1aa5      	subs	r5, r4, r2
    264c:	46d8      	mov	r8, fp
    264e:	e729      	b.n	24a4 <__aeabi_dadd+0xb8>
    2650:	4645      	mov	r5, r8
    2652:	2400      	movs	r4, #0
    2654:	2700      	movs	r7, #0
    2656:	e76a      	b.n	252e <__aeabi_dadd+0x142>
    2658:	4c45      	ldr	r4, [pc, #276]	; (2770 <__aeabi_dadd+0x384>)
    265a:	1af6      	subs	r6, r6, r3
    265c:	402c      	ands	r4, r5
    265e:	e749      	b.n	24f4 <__aeabi_dadd+0x108>
    2660:	003d      	movs	r5, r7
    2662:	3828      	subs	r0, #40	; 0x28
    2664:	4085      	lsls	r5, r0
    2666:	2700      	movs	r7, #0
    2668:	e72e      	b.n	24c8 <__aeabi_dadd+0xdc>
    266a:	0038      	movs	r0, r7
    266c:	f001 fb04 	bl	3c78 <__clzsi2>
    2670:	3020      	adds	r0, #32
    2672:	e71d      	b.n	24b0 <__aeabi_dadd+0xc4>
    2674:	430a      	orrs	r2, r1
    2676:	1e51      	subs	r1, r2, #1
    2678:	418a      	sbcs	r2, r1
    267a:	2100      	movs	r1, #0
    267c:	e707      	b.n	248e <__aeabi_dadd+0xa2>
    267e:	2b00      	cmp	r3, #0
    2680:	d000      	beq.n	2684 <__aeabi_dadd+0x298>
    2682:	e0f3      	b.n	286c <__aeabi_dadd+0x480>
    2684:	1c70      	adds	r0, r6, #1
    2686:	0543      	lsls	r3, r0, #21
    2688:	0d5b      	lsrs	r3, r3, #21
    268a:	2b01      	cmp	r3, #1
    268c:	dc00      	bgt.n	2690 <__aeabi_dadd+0x2a4>
    268e:	e0ad      	b.n	27ec <__aeabi_dadd+0x400>
    2690:	4b36      	ldr	r3, [pc, #216]	; (276c <__aeabi_dadd+0x380>)
    2692:	4298      	cmp	r0, r3
    2694:	d100      	bne.n	2698 <__aeabi_dadd+0x2ac>
    2696:	e0d1      	b.n	283c <__aeabi_dadd+0x450>
    2698:	18ba      	adds	r2, r7, r2
    269a:	42ba      	cmp	r2, r7
    269c:	41bf      	sbcs	r7, r7
    269e:	1864      	adds	r4, r4, r1
    26a0:	427f      	negs	r7, r7
    26a2:	19e4      	adds	r4, r4, r7
    26a4:	07e7      	lsls	r7, r4, #31
    26a6:	0852      	lsrs	r2, r2, #1
    26a8:	4317      	orrs	r7, r2
    26aa:	0864      	lsrs	r4, r4, #1
    26ac:	0006      	movs	r6, r0
    26ae:	e721      	b.n	24f4 <__aeabi_dadd+0x108>
    26b0:	482e      	ldr	r0, [pc, #184]	; (276c <__aeabi_dadd+0x380>)
    26b2:	4285      	cmp	r5, r0
    26b4:	d100      	bne.n	26b8 <__aeabi_dadd+0x2cc>
    26b6:	e093      	b.n	27e0 <__aeabi_dadd+0x3f4>
    26b8:	001d      	movs	r5, r3
    26ba:	e6d0      	b.n	245e <__aeabi_dadd+0x72>
    26bc:	0029      	movs	r1, r5
    26be:	3e1f      	subs	r6, #31
    26c0:	40f1      	lsrs	r1, r6
    26c2:	2b20      	cmp	r3, #32
    26c4:	d100      	bne.n	26c8 <__aeabi_dadd+0x2dc>
    26c6:	e08d      	b.n	27e4 <__aeabi_dadd+0x3f8>
    26c8:	2240      	movs	r2, #64	; 0x40
    26ca:	1ad3      	subs	r3, r2, r3
    26cc:	409d      	lsls	r5, r3
    26ce:	432f      	orrs	r7, r5
    26d0:	1e7d      	subs	r5, r7, #1
    26d2:	41af      	sbcs	r7, r5
    26d4:	2400      	movs	r4, #0
    26d6:	430f      	orrs	r7, r1
    26d8:	2600      	movs	r6, #0
    26da:	e744      	b.n	2566 <__aeabi_dadd+0x17a>
    26dc:	002b      	movs	r3, r5
    26de:	0008      	movs	r0, r1
    26e0:	3b20      	subs	r3, #32
    26e2:	40d8      	lsrs	r0, r3
    26e4:	0003      	movs	r3, r0
    26e6:	2d20      	cmp	r5, #32
    26e8:	d100      	bne.n	26ec <__aeabi_dadd+0x300>
    26ea:	e07d      	b.n	27e8 <__aeabi_dadd+0x3fc>
    26ec:	2040      	movs	r0, #64	; 0x40
    26ee:	1b45      	subs	r5, r0, r5
    26f0:	40a9      	lsls	r1, r5
    26f2:	430a      	orrs	r2, r1
    26f4:	1e51      	subs	r1, r2, #1
    26f6:	418a      	sbcs	r2, r1
    26f8:	2100      	movs	r1, #0
    26fa:	431a      	orrs	r2, r3
    26fc:	e6c7      	b.n	248e <__aeabi_dadd+0xa2>
    26fe:	2e00      	cmp	r6, #0
    2700:	d050      	beq.n	27a4 <__aeabi_dadd+0x3b8>
    2702:	4e1a      	ldr	r6, [pc, #104]	; (276c <__aeabi_dadd+0x380>)
    2704:	42b0      	cmp	r0, r6
    2706:	d057      	beq.n	27b8 <__aeabi_dadd+0x3cc>
    2708:	2680      	movs	r6, #128	; 0x80
    270a:	426b      	negs	r3, r5
    270c:	4699      	mov	r9, r3
    270e:	0436      	lsls	r6, r6, #16
    2710:	4334      	orrs	r4, r6
    2712:	464b      	mov	r3, r9
    2714:	2b38      	cmp	r3, #56	; 0x38
    2716:	dd00      	ble.n	271a <__aeabi_dadd+0x32e>
    2718:	e0d6      	b.n	28c8 <__aeabi_dadd+0x4dc>
    271a:	2b1f      	cmp	r3, #31
    271c:	dd00      	ble.n	2720 <__aeabi_dadd+0x334>
    271e:	e135      	b.n	298c <__aeabi_dadd+0x5a0>
    2720:	2620      	movs	r6, #32
    2722:	1af5      	subs	r5, r6, r3
    2724:	0026      	movs	r6, r4
    2726:	40ae      	lsls	r6, r5
    2728:	46b2      	mov	sl, r6
    272a:	003e      	movs	r6, r7
    272c:	40de      	lsrs	r6, r3
    272e:	46ac      	mov	ip, r5
    2730:	0035      	movs	r5, r6
    2732:	4656      	mov	r6, sl
    2734:	432e      	orrs	r6, r5
    2736:	4665      	mov	r5, ip
    2738:	40af      	lsls	r7, r5
    273a:	1e7d      	subs	r5, r7, #1
    273c:	41af      	sbcs	r7, r5
    273e:	40dc      	lsrs	r4, r3
    2740:	4337      	orrs	r7, r6
    2742:	1bd7      	subs	r7, r2, r7
    2744:	42ba      	cmp	r2, r7
    2746:	4192      	sbcs	r2, r2
    2748:	1b0c      	subs	r4, r1, r4
    274a:	4252      	negs	r2, r2
    274c:	1aa4      	subs	r4, r4, r2
    274e:	0006      	movs	r6, r0
    2750:	46d8      	mov	r8, fp
    2752:	e6a3      	b.n	249c <__aeabi_dadd+0xb0>
    2754:	4664      	mov	r4, ip
    2756:	4667      	mov	r7, ip
    2758:	432c      	orrs	r4, r5
    275a:	d000      	beq.n	275e <__aeabi_dadd+0x372>
    275c:	e6a2      	b.n	24a4 <__aeabi_dadd+0xb8>
    275e:	2500      	movs	r5, #0
    2760:	2600      	movs	r6, #0
    2762:	2700      	movs	r7, #0
    2764:	e706      	b.n	2574 <__aeabi_dadd+0x188>
    2766:	001e      	movs	r6, r3
    2768:	e6c4      	b.n	24f4 <__aeabi_dadd+0x108>
    276a:	46c0      	nop			; (mov r8, r8)
    276c:	000007ff 	.word	0x000007ff
    2770:	ff7fffff 	.word	0xff7fffff
    2774:	800fffff 	.word	0x800fffff
    2778:	2b1f      	cmp	r3, #31
    277a:	dc63      	bgt.n	2844 <__aeabi_dadd+0x458>
    277c:	2020      	movs	r0, #32
    277e:	1ac3      	subs	r3, r0, r3
    2780:	0008      	movs	r0, r1
    2782:	4098      	lsls	r0, r3
    2784:	469c      	mov	ip, r3
    2786:	4683      	mov	fp, r0
    2788:	4653      	mov	r3, sl
    278a:	0010      	movs	r0, r2
    278c:	40d8      	lsrs	r0, r3
    278e:	0003      	movs	r3, r0
    2790:	4658      	mov	r0, fp
    2792:	4318      	orrs	r0, r3
    2794:	4663      	mov	r3, ip
    2796:	409a      	lsls	r2, r3
    2798:	1e53      	subs	r3, r2, #1
    279a:	419a      	sbcs	r2, r3
    279c:	4653      	mov	r3, sl
    279e:	4302      	orrs	r2, r0
    27a0:	40d9      	lsrs	r1, r3
    27a2:	e703      	b.n	25ac <__aeabi_dadd+0x1c0>
    27a4:	0026      	movs	r6, r4
    27a6:	433e      	orrs	r6, r7
    27a8:	d006      	beq.n	27b8 <__aeabi_dadd+0x3cc>
    27aa:	43eb      	mvns	r3, r5
    27ac:	4699      	mov	r9, r3
    27ae:	2b00      	cmp	r3, #0
    27b0:	d0c7      	beq.n	2742 <__aeabi_dadd+0x356>
    27b2:	4e94      	ldr	r6, [pc, #592]	; (2a04 <__aeabi_dadd+0x618>)
    27b4:	42b0      	cmp	r0, r6
    27b6:	d1ac      	bne.n	2712 <__aeabi_dadd+0x326>
    27b8:	000c      	movs	r4, r1
    27ba:	0017      	movs	r7, r2
    27bc:	0006      	movs	r6, r0
    27be:	46d8      	mov	r8, fp
    27c0:	e698      	b.n	24f4 <__aeabi_dadd+0x108>
    27c2:	4b90      	ldr	r3, [pc, #576]	; (2a04 <__aeabi_dadd+0x618>)
    27c4:	459a      	cmp	sl, r3
    27c6:	d00b      	beq.n	27e0 <__aeabi_dadd+0x3f4>
    27c8:	4682      	mov	sl, r0
    27ca:	e6e7      	b.n	259c <__aeabi_dadd+0x1b0>
    27cc:	2800      	cmp	r0, #0
    27ce:	d000      	beq.n	27d2 <__aeabi_dadd+0x3e6>
    27d0:	e09e      	b.n	2910 <__aeabi_dadd+0x524>
    27d2:	0018      	movs	r0, r3
    27d4:	4310      	orrs	r0, r2
    27d6:	d100      	bne.n	27da <__aeabi_dadd+0x3ee>
    27d8:	e0e9      	b.n	29ae <__aeabi_dadd+0x5c2>
    27da:	001c      	movs	r4, r3
    27dc:	0017      	movs	r7, r2
    27de:	46d8      	mov	r8, fp
    27e0:	4e88      	ldr	r6, [pc, #544]	; (2a04 <__aeabi_dadd+0x618>)
    27e2:	e687      	b.n	24f4 <__aeabi_dadd+0x108>
    27e4:	2500      	movs	r5, #0
    27e6:	e772      	b.n	26ce <__aeabi_dadd+0x2e2>
    27e8:	2100      	movs	r1, #0
    27ea:	e782      	b.n	26f2 <__aeabi_dadd+0x306>
    27ec:	0023      	movs	r3, r4
    27ee:	433b      	orrs	r3, r7
    27f0:	2e00      	cmp	r6, #0
    27f2:	d000      	beq.n	27f6 <__aeabi_dadd+0x40a>
    27f4:	e0ab      	b.n	294e <__aeabi_dadd+0x562>
    27f6:	2b00      	cmp	r3, #0
    27f8:	d100      	bne.n	27fc <__aeabi_dadd+0x410>
    27fa:	e0e7      	b.n	29cc <__aeabi_dadd+0x5e0>
    27fc:	000b      	movs	r3, r1
    27fe:	4313      	orrs	r3, r2
    2800:	d100      	bne.n	2804 <__aeabi_dadd+0x418>
    2802:	e677      	b.n	24f4 <__aeabi_dadd+0x108>
    2804:	18ba      	adds	r2, r7, r2
    2806:	42ba      	cmp	r2, r7
    2808:	41bf      	sbcs	r7, r7
    280a:	1864      	adds	r4, r4, r1
    280c:	427f      	negs	r7, r7
    280e:	19e4      	adds	r4, r4, r7
    2810:	0223      	lsls	r3, r4, #8
    2812:	d400      	bmi.n	2816 <__aeabi_dadd+0x42a>
    2814:	e0f2      	b.n	29fc <__aeabi_dadd+0x610>
    2816:	4b7c      	ldr	r3, [pc, #496]	; (2a08 <__aeabi_dadd+0x61c>)
    2818:	0017      	movs	r7, r2
    281a:	401c      	ands	r4, r3
    281c:	0006      	movs	r6, r0
    281e:	e669      	b.n	24f4 <__aeabi_dadd+0x108>
    2820:	0020      	movs	r0, r4
    2822:	4338      	orrs	r0, r7
    2824:	2e00      	cmp	r6, #0
    2826:	d1d1      	bne.n	27cc <__aeabi_dadd+0x3e0>
    2828:	2800      	cmp	r0, #0
    282a:	d15b      	bne.n	28e4 <__aeabi_dadd+0x4f8>
    282c:	001c      	movs	r4, r3
    282e:	4314      	orrs	r4, r2
    2830:	d100      	bne.n	2834 <__aeabi_dadd+0x448>
    2832:	e0a8      	b.n	2986 <__aeabi_dadd+0x59a>
    2834:	001c      	movs	r4, r3
    2836:	0017      	movs	r7, r2
    2838:	46d8      	mov	r8, fp
    283a:	e65b      	b.n	24f4 <__aeabi_dadd+0x108>
    283c:	0006      	movs	r6, r0
    283e:	2400      	movs	r4, #0
    2840:	2700      	movs	r7, #0
    2842:	e697      	b.n	2574 <__aeabi_dadd+0x188>
    2844:	4650      	mov	r0, sl
    2846:	000b      	movs	r3, r1
    2848:	3820      	subs	r0, #32
    284a:	40c3      	lsrs	r3, r0
    284c:	4699      	mov	r9, r3
    284e:	4653      	mov	r3, sl
    2850:	2b20      	cmp	r3, #32
    2852:	d100      	bne.n	2856 <__aeabi_dadd+0x46a>
    2854:	e095      	b.n	2982 <__aeabi_dadd+0x596>
    2856:	2340      	movs	r3, #64	; 0x40
    2858:	4650      	mov	r0, sl
    285a:	1a1b      	subs	r3, r3, r0
    285c:	4099      	lsls	r1, r3
    285e:	430a      	orrs	r2, r1
    2860:	1e51      	subs	r1, r2, #1
    2862:	418a      	sbcs	r2, r1
    2864:	464b      	mov	r3, r9
    2866:	2100      	movs	r1, #0
    2868:	431a      	orrs	r2, r3
    286a:	e69f      	b.n	25ac <__aeabi_dadd+0x1c0>
    286c:	2e00      	cmp	r6, #0
    286e:	d130      	bne.n	28d2 <__aeabi_dadd+0x4e6>
    2870:	0026      	movs	r6, r4
    2872:	433e      	orrs	r6, r7
    2874:	d067      	beq.n	2946 <__aeabi_dadd+0x55a>
    2876:	43db      	mvns	r3, r3
    2878:	469a      	mov	sl, r3
    287a:	2b00      	cmp	r3, #0
    287c:	d01c      	beq.n	28b8 <__aeabi_dadd+0x4cc>
    287e:	4e61      	ldr	r6, [pc, #388]	; (2a04 <__aeabi_dadd+0x618>)
    2880:	42b0      	cmp	r0, r6
    2882:	d060      	beq.n	2946 <__aeabi_dadd+0x55a>
    2884:	4653      	mov	r3, sl
    2886:	2b38      	cmp	r3, #56	; 0x38
    2888:	dd00      	ble.n	288c <__aeabi_dadd+0x4a0>
    288a:	e096      	b.n	29ba <__aeabi_dadd+0x5ce>
    288c:	2b1f      	cmp	r3, #31
    288e:	dd00      	ble.n	2892 <__aeabi_dadd+0x4a6>
    2890:	e09f      	b.n	29d2 <__aeabi_dadd+0x5e6>
    2892:	2620      	movs	r6, #32
    2894:	1af3      	subs	r3, r6, r3
    2896:	0026      	movs	r6, r4
    2898:	409e      	lsls	r6, r3
    289a:	469c      	mov	ip, r3
    289c:	46b3      	mov	fp, r6
    289e:	4653      	mov	r3, sl
    28a0:	003e      	movs	r6, r7
    28a2:	40de      	lsrs	r6, r3
    28a4:	0033      	movs	r3, r6
    28a6:	465e      	mov	r6, fp
    28a8:	431e      	orrs	r6, r3
    28aa:	4663      	mov	r3, ip
    28ac:	409f      	lsls	r7, r3
    28ae:	1e7b      	subs	r3, r7, #1
    28b0:	419f      	sbcs	r7, r3
    28b2:	4653      	mov	r3, sl
    28b4:	40dc      	lsrs	r4, r3
    28b6:	4337      	orrs	r7, r6
    28b8:	18bf      	adds	r7, r7, r2
    28ba:	4297      	cmp	r7, r2
    28bc:	4192      	sbcs	r2, r2
    28be:	1864      	adds	r4, r4, r1
    28c0:	4252      	negs	r2, r2
    28c2:	18a4      	adds	r4, r4, r2
    28c4:	0006      	movs	r6, r0
    28c6:	e678      	b.n	25ba <__aeabi_dadd+0x1ce>
    28c8:	4327      	orrs	r7, r4
    28ca:	1e7c      	subs	r4, r7, #1
    28cc:	41a7      	sbcs	r7, r4
    28ce:	2400      	movs	r4, #0
    28d0:	e737      	b.n	2742 <__aeabi_dadd+0x356>
    28d2:	4e4c      	ldr	r6, [pc, #304]	; (2a04 <__aeabi_dadd+0x618>)
    28d4:	42b0      	cmp	r0, r6
    28d6:	d036      	beq.n	2946 <__aeabi_dadd+0x55a>
    28d8:	2680      	movs	r6, #128	; 0x80
    28da:	425b      	negs	r3, r3
    28dc:	0436      	lsls	r6, r6, #16
    28de:	469a      	mov	sl, r3
    28e0:	4334      	orrs	r4, r6
    28e2:	e7cf      	b.n	2884 <__aeabi_dadd+0x498>
    28e4:	0018      	movs	r0, r3
    28e6:	4310      	orrs	r0, r2
    28e8:	d100      	bne.n	28ec <__aeabi_dadd+0x500>
    28ea:	e603      	b.n	24f4 <__aeabi_dadd+0x108>
    28ec:	1ab8      	subs	r0, r7, r2
    28ee:	4684      	mov	ip, r0
    28f0:	4567      	cmp	r7, ip
    28f2:	41ad      	sbcs	r5, r5
    28f4:	1ae0      	subs	r0, r4, r3
    28f6:	426d      	negs	r5, r5
    28f8:	1b40      	subs	r0, r0, r5
    28fa:	0205      	lsls	r5, r0, #8
    28fc:	d400      	bmi.n	2900 <__aeabi_dadd+0x514>
    28fe:	e62c      	b.n	255a <__aeabi_dadd+0x16e>
    2900:	1bd7      	subs	r7, r2, r7
    2902:	42ba      	cmp	r2, r7
    2904:	4192      	sbcs	r2, r2
    2906:	1b1c      	subs	r4, r3, r4
    2908:	4252      	negs	r2, r2
    290a:	1aa4      	subs	r4, r4, r2
    290c:	46d8      	mov	r8, fp
    290e:	e5f1      	b.n	24f4 <__aeabi_dadd+0x108>
    2910:	0018      	movs	r0, r3
    2912:	4310      	orrs	r0, r2
    2914:	d100      	bne.n	2918 <__aeabi_dadd+0x52c>
    2916:	e763      	b.n	27e0 <__aeabi_dadd+0x3f4>
    2918:	08f8      	lsrs	r0, r7, #3
    291a:	0767      	lsls	r7, r4, #29
    291c:	4307      	orrs	r7, r0
    291e:	2080      	movs	r0, #128	; 0x80
    2920:	08e4      	lsrs	r4, r4, #3
    2922:	0300      	lsls	r0, r0, #12
    2924:	4204      	tst	r4, r0
    2926:	d008      	beq.n	293a <__aeabi_dadd+0x54e>
    2928:	08dd      	lsrs	r5, r3, #3
    292a:	4205      	tst	r5, r0
    292c:	d105      	bne.n	293a <__aeabi_dadd+0x54e>
    292e:	08d2      	lsrs	r2, r2, #3
    2930:	0759      	lsls	r1, r3, #29
    2932:	4311      	orrs	r1, r2
    2934:	000f      	movs	r7, r1
    2936:	002c      	movs	r4, r5
    2938:	46d8      	mov	r8, fp
    293a:	0f7b      	lsrs	r3, r7, #29
    293c:	00e4      	lsls	r4, r4, #3
    293e:	431c      	orrs	r4, r3
    2940:	00ff      	lsls	r7, r7, #3
    2942:	4e30      	ldr	r6, [pc, #192]	; (2a04 <__aeabi_dadd+0x618>)
    2944:	e5d6      	b.n	24f4 <__aeabi_dadd+0x108>
    2946:	000c      	movs	r4, r1
    2948:	0017      	movs	r7, r2
    294a:	0006      	movs	r6, r0
    294c:	e5d2      	b.n	24f4 <__aeabi_dadd+0x108>
    294e:	2b00      	cmp	r3, #0
    2950:	d038      	beq.n	29c4 <__aeabi_dadd+0x5d8>
    2952:	000b      	movs	r3, r1
    2954:	4313      	orrs	r3, r2
    2956:	d100      	bne.n	295a <__aeabi_dadd+0x56e>
    2958:	e742      	b.n	27e0 <__aeabi_dadd+0x3f4>
    295a:	08f8      	lsrs	r0, r7, #3
    295c:	0767      	lsls	r7, r4, #29
    295e:	4307      	orrs	r7, r0
    2960:	2080      	movs	r0, #128	; 0x80
    2962:	08e4      	lsrs	r4, r4, #3
    2964:	0300      	lsls	r0, r0, #12
    2966:	4204      	tst	r4, r0
    2968:	d0e7      	beq.n	293a <__aeabi_dadd+0x54e>
    296a:	08cb      	lsrs	r3, r1, #3
    296c:	4203      	tst	r3, r0
    296e:	d1e4      	bne.n	293a <__aeabi_dadd+0x54e>
    2970:	08d2      	lsrs	r2, r2, #3
    2972:	0749      	lsls	r1, r1, #29
    2974:	4311      	orrs	r1, r2
    2976:	000f      	movs	r7, r1
    2978:	001c      	movs	r4, r3
    297a:	e7de      	b.n	293a <__aeabi_dadd+0x54e>
    297c:	2700      	movs	r7, #0
    297e:	2400      	movs	r4, #0
    2980:	e5d5      	b.n	252e <__aeabi_dadd+0x142>
    2982:	2100      	movs	r1, #0
    2984:	e76b      	b.n	285e <__aeabi_dadd+0x472>
    2986:	2500      	movs	r5, #0
    2988:	2700      	movs	r7, #0
    298a:	e5f3      	b.n	2574 <__aeabi_dadd+0x188>
    298c:	464e      	mov	r6, r9
    298e:	0025      	movs	r5, r4
    2990:	3e20      	subs	r6, #32
    2992:	40f5      	lsrs	r5, r6
    2994:	464b      	mov	r3, r9
    2996:	002e      	movs	r6, r5
    2998:	2b20      	cmp	r3, #32
    299a:	d02d      	beq.n	29f8 <__aeabi_dadd+0x60c>
    299c:	2540      	movs	r5, #64	; 0x40
    299e:	1aed      	subs	r5, r5, r3
    29a0:	40ac      	lsls	r4, r5
    29a2:	4327      	orrs	r7, r4
    29a4:	1e7c      	subs	r4, r7, #1
    29a6:	41a7      	sbcs	r7, r4
    29a8:	2400      	movs	r4, #0
    29aa:	4337      	orrs	r7, r6
    29ac:	e6c9      	b.n	2742 <__aeabi_dadd+0x356>
    29ae:	2480      	movs	r4, #128	; 0x80
    29b0:	2500      	movs	r5, #0
    29b2:	0324      	lsls	r4, r4, #12
    29b4:	4e13      	ldr	r6, [pc, #76]	; (2a04 <__aeabi_dadd+0x618>)
    29b6:	2700      	movs	r7, #0
    29b8:	e5dc      	b.n	2574 <__aeabi_dadd+0x188>
    29ba:	4327      	orrs	r7, r4
    29bc:	1e7c      	subs	r4, r7, #1
    29be:	41a7      	sbcs	r7, r4
    29c0:	2400      	movs	r4, #0
    29c2:	e779      	b.n	28b8 <__aeabi_dadd+0x4cc>
    29c4:	000c      	movs	r4, r1
    29c6:	0017      	movs	r7, r2
    29c8:	4e0e      	ldr	r6, [pc, #56]	; (2a04 <__aeabi_dadd+0x618>)
    29ca:	e593      	b.n	24f4 <__aeabi_dadd+0x108>
    29cc:	000c      	movs	r4, r1
    29ce:	0017      	movs	r7, r2
    29d0:	e590      	b.n	24f4 <__aeabi_dadd+0x108>
    29d2:	4656      	mov	r6, sl
    29d4:	0023      	movs	r3, r4
    29d6:	3e20      	subs	r6, #32
    29d8:	40f3      	lsrs	r3, r6
    29da:	4699      	mov	r9, r3
    29dc:	4653      	mov	r3, sl
    29de:	2b20      	cmp	r3, #32
    29e0:	d00e      	beq.n	2a00 <__aeabi_dadd+0x614>
    29e2:	2340      	movs	r3, #64	; 0x40
    29e4:	4656      	mov	r6, sl
    29e6:	1b9b      	subs	r3, r3, r6
    29e8:	409c      	lsls	r4, r3
    29ea:	4327      	orrs	r7, r4
    29ec:	1e7c      	subs	r4, r7, #1
    29ee:	41a7      	sbcs	r7, r4
    29f0:	464b      	mov	r3, r9
    29f2:	2400      	movs	r4, #0
    29f4:	431f      	orrs	r7, r3
    29f6:	e75f      	b.n	28b8 <__aeabi_dadd+0x4cc>
    29f8:	2400      	movs	r4, #0
    29fa:	e7d2      	b.n	29a2 <__aeabi_dadd+0x5b6>
    29fc:	0017      	movs	r7, r2
    29fe:	e5b2      	b.n	2566 <__aeabi_dadd+0x17a>
    2a00:	2400      	movs	r4, #0
    2a02:	e7f2      	b.n	29ea <__aeabi_dadd+0x5fe>
    2a04:	000007ff 	.word	0x000007ff
    2a08:	ff7fffff 	.word	0xff7fffff

00002a0c <__aeabi_ddiv>:
    2a0c:	b5f0      	push	{r4, r5, r6, r7, lr}
    2a0e:	4657      	mov	r7, sl
    2a10:	4645      	mov	r5, r8
    2a12:	46de      	mov	lr, fp
    2a14:	464e      	mov	r6, r9
    2a16:	b5e0      	push	{r5, r6, r7, lr}
    2a18:	004c      	lsls	r4, r1, #1
    2a1a:	030e      	lsls	r6, r1, #12
    2a1c:	b087      	sub	sp, #28
    2a1e:	4683      	mov	fp, r0
    2a20:	4692      	mov	sl, r2
    2a22:	001d      	movs	r5, r3
    2a24:	4680      	mov	r8, r0
    2a26:	0b36      	lsrs	r6, r6, #12
    2a28:	0d64      	lsrs	r4, r4, #21
    2a2a:	0fcf      	lsrs	r7, r1, #31
    2a2c:	2c00      	cmp	r4, #0
    2a2e:	d04f      	beq.n	2ad0 <__aeabi_ddiv+0xc4>
    2a30:	4b6f      	ldr	r3, [pc, #444]	; (2bf0 <__aeabi_ddiv+0x1e4>)
    2a32:	429c      	cmp	r4, r3
    2a34:	d035      	beq.n	2aa2 <__aeabi_ddiv+0x96>
    2a36:	2380      	movs	r3, #128	; 0x80
    2a38:	0f42      	lsrs	r2, r0, #29
    2a3a:	041b      	lsls	r3, r3, #16
    2a3c:	00f6      	lsls	r6, r6, #3
    2a3e:	4313      	orrs	r3, r2
    2a40:	4333      	orrs	r3, r6
    2a42:	4699      	mov	r9, r3
    2a44:	00c3      	lsls	r3, r0, #3
    2a46:	4698      	mov	r8, r3
    2a48:	4b6a      	ldr	r3, [pc, #424]	; (2bf4 <__aeabi_ddiv+0x1e8>)
    2a4a:	2600      	movs	r6, #0
    2a4c:	469c      	mov	ip, r3
    2a4e:	2300      	movs	r3, #0
    2a50:	4464      	add	r4, ip
    2a52:	9303      	str	r3, [sp, #12]
    2a54:	032b      	lsls	r3, r5, #12
    2a56:	0b1b      	lsrs	r3, r3, #12
    2a58:	469b      	mov	fp, r3
    2a5a:	006b      	lsls	r3, r5, #1
    2a5c:	0fed      	lsrs	r5, r5, #31
    2a5e:	4650      	mov	r0, sl
    2a60:	0d5b      	lsrs	r3, r3, #21
    2a62:	9501      	str	r5, [sp, #4]
    2a64:	d05e      	beq.n	2b24 <__aeabi_ddiv+0x118>
    2a66:	4a62      	ldr	r2, [pc, #392]	; (2bf0 <__aeabi_ddiv+0x1e4>)
    2a68:	4293      	cmp	r3, r2
    2a6a:	d053      	beq.n	2b14 <__aeabi_ddiv+0x108>
    2a6c:	465a      	mov	r2, fp
    2a6e:	00d1      	lsls	r1, r2, #3
    2a70:	2280      	movs	r2, #128	; 0x80
    2a72:	0f40      	lsrs	r0, r0, #29
    2a74:	0412      	lsls	r2, r2, #16
    2a76:	4302      	orrs	r2, r0
    2a78:	430a      	orrs	r2, r1
    2a7a:	4693      	mov	fp, r2
    2a7c:	4652      	mov	r2, sl
    2a7e:	00d1      	lsls	r1, r2, #3
    2a80:	4a5c      	ldr	r2, [pc, #368]	; (2bf4 <__aeabi_ddiv+0x1e8>)
    2a82:	4694      	mov	ip, r2
    2a84:	2200      	movs	r2, #0
    2a86:	4463      	add	r3, ip
    2a88:	0038      	movs	r0, r7
    2a8a:	4068      	eors	r0, r5
    2a8c:	4684      	mov	ip, r0
    2a8e:	9002      	str	r0, [sp, #8]
    2a90:	1ae4      	subs	r4, r4, r3
    2a92:	4316      	orrs	r6, r2
    2a94:	2e0f      	cmp	r6, #15
    2a96:	d900      	bls.n	2a9a <__aeabi_ddiv+0x8e>
    2a98:	e0b4      	b.n	2c04 <__aeabi_ddiv+0x1f8>
    2a9a:	4b57      	ldr	r3, [pc, #348]	; (2bf8 <__aeabi_ddiv+0x1ec>)
    2a9c:	00b6      	lsls	r6, r6, #2
    2a9e:	599b      	ldr	r3, [r3, r6]
    2aa0:	469f      	mov	pc, r3
    2aa2:	0003      	movs	r3, r0
    2aa4:	4333      	orrs	r3, r6
    2aa6:	4699      	mov	r9, r3
    2aa8:	d16c      	bne.n	2b84 <__aeabi_ddiv+0x178>
    2aaa:	2300      	movs	r3, #0
    2aac:	4698      	mov	r8, r3
    2aae:	3302      	adds	r3, #2
    2ab0:	2608      	movs	r6, #8
    2ab2:	9303      	str	r3, [sp, #12]
    2ab4:	e7ce      	b.n	2a54 <__aeabi_ddiv+0x48>
    2ab6:	46cb      	mov	fp, r9
    2ab8:	4641      	mov	r1, r8
    2aba:	9a03      	ldr	r2, [sp, #12]
    2abc:	9701      	str	r7, [sp, #4]
    2abe:	2a02      	cmp	r2, #2
    2ac0:	d165      	bne.n	2b8e <__aeabi_ddiv+0x182>
    2ac2:	9b01      	ldr	r3, [sp, #4]
    2ac4:	4c4a      	ldr	r4, [pc, #296]	; (2bf0 <__aeabi_ddiv+0x1e4>)
    2ac6:	469c      	mov	ip, r3
    2ac8:	2300      	movs	r3, #0
    2aca:	2200      	movs	r2, #0
    2acc:	4698      	mov	r8, r3
    2ace:	e06b      	b.n	2ba8 <__aeabi_ddiv+0x19c>
    2ad0:	0003      	movs	r3, r0
    2ad2:	4333      	orrs	r3, r6
    2ad4:	4699      	mov	r9, r3
    2ad6:	d04e      	beq.n	2b76 <__aeabi_ddiv+0x16a>
    2ad8:	2e00      	cmp	r6, #0
    2ada:	d100      	bne.n	2ade <__aeabi_ddiv+0xd2>
    2adc:	e1bc      	b.n	2e58 <__aeabi_ddiv+0x44c>
    2ade:	0030      	movs	r0, r6
    2ae0:	f001 f8ca 	bl	3c78 <__clzsi2>
    2ae4:	0003      	movs	r3, r0
    2ae6:	3b0b      	subs	r3, #11
    2ae8:	2b1c      	cmp	r3, #28
    2aea:	dd00      	ble.n	2aee <__aeabi_ddiv+0xe2>
    2aec:	e1ac      	b.n	2e48 <__aeabi_ddiv+0x43c>
    2aee:	221d      	movs	r2, #29
    2af0:	1ad3      	subs	r3, r2, r3
    2af2:	465a      	mov	r2, fp
    2af4:	0001      	movs	r1, r0
    2af6:	40da      	lsrs	r2, r3
    2af8:	3908      	subs	r1, #8
    2afa:	408e      	lsls	r6, r1
    2afc:	0013      	movs	r3, r2
    2afe:	4333      	orrs	r3, r6
    2b00:	4699      	mov	r9, r3
    2b02:	465b      	mov	r3, fp
    2b04:	408b      	lsls	r3, r1
    2b06:	4698      	mov	r8, r3
    2b08:	2300      	movs	r3, #0
    2b0a:	4c3c      	ldr	r4, [pc, #240]	; (2bfc <__aeabi_ddiv+0x1f0>)
    2b0c:	2600      	movs	r6, #0
    2b0e:	1a24      	subs	r4, r4, r0
    2b10:	9303      	str	r3, [sp, #12]
    2b12:	e79f      	b.n	2a54 <__aeabi_ddiv+0x48>
    2b14:	4651      	mov	r1, sl
    2b16:	465a      	mov	r2, fp
    2b18:	4311      	orrs	r1, r2
    2b1a:	d129      	bne.n	2b70 <__aeabi_ddiv+0x164>
    2b1c:	2200      	movs	r2, #0
    2b1e:	4693      	mov	fp, r2
    2b20:	3202      	adds	r2, #2
    2b22:	e7b1      	b.n	2a88 <__aeabi_ddiv+0x7c>
    2b24:	4659      	mov	r1, fp
    2b26:	4301      	orrs	r1, r0
    2b28:	d01e      	beq.n	2b68 <__aeabi_ddiv+0x15c>
    2b2a:	465b      	mov	r3, fp
    2b2c:	2b00      	cmp	r3, #0
    2b2e:	d100      	bne.n	2b32 <__aeabi_ddiv+0x126>
    2b30:	e19e      	b.n	2e70 <__aeabi_ddiv+0x464>
    2b32:	4658      	mov	r0, fp
    2b34:	f001 f8a0 	bl	3c78 <__clzsi2>
    2b38:	0003      	movs	r3, r0
    2b3a:	3b0b      	subs	r3, #11
    2b3c:	2b1c      	cmp	r3, #28
    2b3e:	dd00      	ble.n	2b42 <__aeabi_ddiv+0x136>
    2b40:	e18f      	b.n	2e62 <__aeabi_ddiv+0x456>
    2b42:	0002      	movs	r2, r0
    2b44:	4659      	mov	r1, fp
    2b46:	3a08      	subs	r2, #8
    2b48:	4091      	lsls	r1, r2
    2b4a:	468b      	mov	fp, r1
    2b4c:	211d      	movs	r1, #29
    2b4e:	1acb      	subs	r3, r1, r3
    2b50:	4651      	mov	r1, sl
    2b52:	40d9      	lsrs	r1, r3
    2b54:	000b      	movs	r3, r1
    2b56:	4659      	mov	r1, fp
    2b58:	430b      	orrs	r3, r1
    2b5a:	4651      	mov	r1, sl
    2b5c:	469b      	mov	fp, r3
    2b5e:	4091      	lsls	r1, r2
    2b60:	4b26      	ldr	r3, [pc, #152]	; (2bfc <__aeabi_ddiv+0x1f0>)
    2b62:	2200      	movs	r2, #0
    2b64:	1a1b      	subs	r3, r3, r0
    2b66:	e78f      	b.n	2a88 <__aeabi_ddiv+0x7c>
    2b68:	2300      	movs	r3, #0
    2b6a:	2201      	movs	r2, #1
    2b6c:	469b      	mov	fp, r3
    2b6e:	e78b      	b.n	2a88 <__aeabi_ddiv+0x7c>
    2b70:	4651      	mov	r1, sl
    2b72:	2203      	movs	r2, #3
    2b74:	e788      	b.n	2a88 <__aeabi_ddiv+0x7c>
    2b76:	2300      	movs	r3, #0
    2b78:	4698      	mov	r8, r3
    2b7a:	3301      	adds	r3, #1
    2b7c:	2604      	movs	r6, #4
    2b7e:	2400      	movs	r4, #0
    2b80:	9303      	str	r3, [sp, #12]
    2b82:	e767      	b.n	2a54 <__aeabi_ddiv+0x48>
    2b84:	2303      	movs	r3, #3
    2b86:	46b1      	mov	r9, r6
    2b88:	9303      	str	r3, [sp, #12]
    2b8a:	260c      	movs	r6, #12
    2b8c:	e762      	b.n	2a54 <__aeabi_ddiv+0x48>
    2b8e:	2a03      	cmp	r2, #3
    2b90:	d100      	bne.n	2b94 <__aeabi_ddiv+0x188>
    2b92:	e25c      	b.n	304e <__aeabi_ddiv+0x642>
    2b94:	9b01      	ldr	r3, [sp, #4]
    2b96:	2a01      	cmp	r2, #1
    2b98:	d000      	beq.n	2b9c <__aeabi_ddiv+0x190>
    2b9a:	e1e4      	b.n	2f66 <__aeabi_ddiv+0x55a>
    2b9c:	4013      	ands	r3, r2
    2b9e:	469c      	mov	ip, r3
    2ba0:	2300      	movs	r3, #0
    2ba2:	2400      	movs	r4, #0
    2ba4:	2200      	movs	r2, #0
    2ba6:	4698      	mov	r8, r3
    2ba8:	2100      	movs	r1, #0
    2baa:	0312      	lsls	r2, r2, #12
    2bac:	0b13      	lsrs	r3, r2, #12
    2bae:	0d0a      	lsrs	r2, r1, #20
    2bb0:	0512      	lsls	r2, r2, #20
    2bb2:	431a      	orrs	r2, r3
    2bb4:	0523      	lsls	r3, r4, #20
    2bb6:	4c12      	ldr	r4, [pc, #72]	; (2c00 <__aeabi_ddiv+0x1f4>)
    2bb8:	4640      	mov	r0, r8
    2bba:	4022      	ands	r2, r4
    2bbc:	4313      	orrs	r3, r2
    2bbe:	4662      	mov	r2, ip
    2bc0:	005b      	lsls	r3, r3, #1
    2bc2:	07d2      	lsls	r2, r2, #31
    2bc4:	085b      	lsrs	r3, r3, #1
    2bc6:	4313      	orrs	r3, r2
    2bc8:	0019      	movs	r1, r3
    2bca:	b007      	add	sp, #28
    2bcc:	bc3c      	pop	{r2, r3, r4, r5}
    2bce:	4690      	mov	r8, r2
    2bd0:	4699      	mov	r9, r3
    2bd2:	46a2      	mov	sl, r4
    2bd4:	46ab      	mov	fp, r5
    2bd6:	bdf0      	pop	{r4, r5, r6, r7, pc}
    2bd8:	2300      	movs	r3, #0
    2bda:	2280      	movs	r2, #128	; 0x80
    2bdc:	469c      	mov	ip, r3
    2bde:	0312      	lsls	r2, r2, #12
    2be0:	4698      	mov	r8, r3
    2be2:	4c03      	ldr	r4, [pc, #12]	; (2bf0 <__aeabi_ddiv+0x1e4>)
    2be4:	e7e0      	b.n	2ba8 <__aeabi_ddiv+0x19c>
    2be6:	2300      	movs	r3, #0
    2be8:	4c01      	ldr	r4, [pc, #4]	; (2bf0 <__aeabi_ddiv+0x1e4>)
    2bea:	2200      	movs	r2, #0
    2bec:	4698      	mov	r8, r3
    2bee:	e7db      	b.n	2ba8 <__aeabi_ddiv+0x19c>
    2bf0:	000007ff 	.word	0x000007ff
    2bf4:	fffffc01 	.word	0xfffffc01
    2bf8:	00004600 	.word	0x00004600
    2bfc:	fffffc0d 	.word	0xfffffc0d
    2c00:	800fffff 	.word	0x800fffff
    2c04:	45d9      	cmp	r9, fp
    2c06:	d900      	bls.n	2c0a <__aeabi_ddiv+0x1fe>
    2c08:	e139      	b.n	2e7e <__aeabi_ddiv+0x472>
    2c0a:	d100      	bne.n	2c0e <__aeabi_ddiv+0x202>
    2c0c:	e134      	b.n	2e78 <__aeabi_ddiv+0x46c>
    2c0e:	2300      	movs	r3, #0
    2c10:	4646      	mov	r6, r8
    2c12:	464d      	mov	r5, r9
    2c14:	469a      	mov	sl, r3
    2c16:	3c01      	subs	r4, #1
    2c18:	465b      	mov	r3, fp
    2c1a:	0e0a      	lsrs	r2, r1, #24
    2c1c:	021b      	lsls	r3, r3, #8
    2c1e:	431a      	orrs	r2, r3
    2c20:	020b      	lsls	r3, r1, #8
    2c22:	0c17      	lsrs	r7, r2, #16
    2c24:	9303      	str	r3, [sp, #12]
    2c26:	0413      	lsls	r3, r2, #16
    2c28:	0c1b      	lsrs	r3, r3, #16
    2c2a:	0039      	movs	r1, r7
    2c2c:	0028      	movs	r0, r5
    2c2e:	4690      	mov	r8, r2
    2c30:	9301      	str	r3, [sp, #4]
    2c32:	f7ff fa45 	bl	20c0 <__udivsi3>
    2c36:	0002      	movs	r2, r0
    2c38:	9b01      	ldr	r3, [sp, #4]
    2c3a:	4683      	mov	fp, r0
    2c3c:	435a      	muls	r2, r3
    2c3e:	0028      	movs	r0, r5
    2c40:	0039      	movs	r1, r7
    2c42:	4691      	mov	r9, r2
    2c44:	f7ff fac2 	bl	21cc <__aeabi_uidivmod>
    2c48:	0c35      	lsrs	r5, r6, #16
    2c4a:	0409      	lsls	r1, r1, #16
    2c4c:	430d      	orrs	r5, r1
    2c4e:	45a9      	cmp	r9, r5
    2c50:	d90d      	bls.n	2c6e <__aeabi_ddiv+0x262>
    2c52:	465b      	mov	r3, fp
    2c54:	4445      	add	r5, r8
    2c56:	3b01      	subs	r3, #1
    2c58:	45a8      	cmp	r8, r5
    2c5a:	d900      	bls.n	2c5e <__aeabi_ddiv+0x252>
    2c5c:	e13a      	b.n	2ed4 <__aeabi_ddiv+0x4c8>
    2c5e:	45a9      	cmp	r9, r5
    2c60:	d800      	bhi.n	2c64 <__aeabi_ddiv+0x258>
    2c62:	e137      	b.n	2ed4 <__aeabi_ddiv+0x4c8>
    2c64:	2302      	movs	r3, #2
    2c66:	425b      	negs	r3, r3
    2c68:	469c      	mov	ip, r3
    2c6a:	4445      	add	r5, r8
    2c6c:	44e3      	add	fp, ip
    2c6e:	464b      	mov	r3, r9
    2c70:	1aeb      	subs	r3, r5, r3
    2c72:	0039      	movs	r1, r7
    2c74:	0018      	movs	r0, r3
    2c76:	9304      	str	r3, [sp, #16]
    2c78:	f7ff fa22 	bl	20c0 <__udivsi3>
    2c7c:	9b01      	ldr	r3, [sp, #4]
    2c7e:	0005      	movs	r5, r0
    2c80:	4343      	muls	r3, r0
    2c82:	0039      	movs	r1, r7
    2c84:	9804      	ldr	r0, [sp, #16]
    2c86:	4699      	mov	r9, r3
    2c88:	f7ff faa0 	bl	21cc <__aeabi_uidivmod>
    2c8c:	0433      	lsls	r3, r6, #16
    2c8e:	0409      	lsls	r1, r1, #16
    2c90:	0c1b      	lsrs	r3, r3, #16
    2c92:	430b      	orrs	r3, r1
    2c94:	4599      	cmp	r9, r3
    2c96:	d909      	bls.n	2cac <__aeabi_ddiv+0x2a0>
    2c98:	4443      	add	r3, r8
    2c9a:	1e6a      	subs	r2, r5, #1
    2c9c:	4598      	cmp	r8, r3
    2c9e:	d900      	bls.n	2ca2 <__aeabi_ddiv+0x296>
    2ca0:	e11a      	b.n	2ed8 <__aeabi_ddiv+0x4cc>
    2ca2:	4599      	cmp	r9, r3
    2ca4:	d800      	bhi.n	2ca8 <__aeabi_ddiv+0x29c>
    2ca6:	e117      	b.n	2ed8 <__aeabi_ddiv+0x4cc>
    2ca8:	3d02      	subs	r5, #2
    2caa:	4443      	add	r3, r8
    2cac:	464a      	mov	r2, r9
    2cae:	1a9b      	subs	r3, r3, r2
    2cb0:	465a      	mov	r2, fp
    2cb2:	0412      	lsls	r2, r2, #16
    2cb4:	432a      	orrs	r2, r5
    2cb6:	9903      	ldr	r1, [sp, #12]
    2cb8:	4693      	mov	fp, r2
    2cba:	0c10      	lsrs	r0, r2, #16
    2cbc:	0c0a      	lsrs	r2, r1, #16
    2cbe:	4691      	mov	r9, r2
    2cc0:	0409      	lsls	r1, r1, #16
    2cc2:	465a      	mov	r2, fp
    2cc4:	0c09      	lsrs	r1, r1, #16
    2cc6:	464e      	mov	r6, r9
    2cc8:	000d      	movs	r5, r1
    2cca:	0412      	lsls	r2, r2, #16
    2ccc:	0c12      	lsrs	r2, r2, #16
    2cce:	4345      	muls	r5, r0
    2cd0:	9105      	str	r1, [sp, #20]
    2cd2:	4351      	muls	r1, r2
    2cd4:	4372      	muls	r2, r6
    2cd6:	4370      	muls	r0, r6
    2cd8:	1952      	adds	r2, r2, r5
    2cda:	0c0e      	lsrs	r6, r1, #16
    2cdc:	18b2      	adds	r2, r6, r2
    2cde:	4295      	cmp	r5, r2
    2ce0:	d903      	bls.n	2cea <__aeabi_ddiv+0x2de>
    2ce2:	2580      	movs	r5, #128	; 0x80
    2ce4:	026d      	lsls	r5, r5, #9
    2ce6:	46ac      	mov	ip, r5
    2ce8:	4460      	add	r0, ip
    2cea:	0c15      	lsrs	r5, r2, #16
    2cec:	0409      	lsls	r1, r1, #16
    2cee:	0412      	lsls	r2, r2, #16
    2cf0:	0c09      	lsrs	r1, r1, #16
    2cf2:	1828      	adds	r0, r5, r0
    2cf4:	1852      	adds	r2, r2, r1
    2cf6:	4283      	cmp	r3, r0
    2cf8:	d200      	bcs.n	2cfc <__aeabi_ddiv+0x2f0>
    2cfa:	e0ce      	b.n	2e9a <__aeabi_ddiv+0x48e>
    2cfc:	d100      	bne.n	2d00 <__aeabi_ddiv+0x2f4>
    2cfe:	e0c8      	b.n	2e92 <__aeabi_ddiv+0x486>
    2d00:	1a1d      	subs	r5, r3, r0
    2d02:	4653      	mov	r3, sl
    2d04:	1a9e      	subs	r6, r3, r2
    2d06:	45b2      	cmp	sl, r6
    2d08:	4192      	sbcs	r2, r2
    2d0a:	4252      	negs	r2, r2
    2d0c:	1aab      	subs	r3, r5, r2
    2d0e:	469a      	mov	sl, r3
    2d10:	4598      	cmp	r8, r3
    2d12:	d100      	bne.n	2d16 <__aeabi_ddiv+0x30a>
    2d14:	e117      	b.n	2f46 <__aeabi_ddiv+0x53a>
    2d16:	0039      	movs	r1, r7
    2d18:	0018      	movs	r0, r3
    2d1a:	f7ff f9d1 	bl	20c0 <__udivsi3>
    2d1e:	9b01      	ldr	r3, [sp, #4]
    2d20:	0005      	movs	r5, r0
    2d22:	4343      	muls	r3, r0
    2d24:	0039      	movs	r1, r7
    2d26:	4650      	mov	r0, sl
    2d28:	9304      	str	r3, [sp, #16]
    2d2a:	f7ff fa4f 	bl	21cc <__aeabi_uidivmod>
    2d2e:	9804      	ldr	r0, [sp, #16]
    2d30:	040b      	lsls	r3, r1, #16
    2d32:	0c31      	lsrs	r1, r6, #16
    2d34:	4319      	orrs	r1, r3
    2d36:	4288      	cmp	r0, r1
    2d38:	d909      	bls.n	2d4e <__aeabi_ddiv+0x342>
    2d3a:	4441      	add	r1, r8
    2d3c:	1e6b      	subs	r3, r5, #1
    2d3e:	4588      	cmp	r8, r1
    2d40:	d900      	bls.n	2d44 <__aeabi_ddiv+0x338>
    2d42:	e107      	b.n	2f54 <__aeabi_ddiv+0x548>
    2d44:	4288      	cmp	r0, r1
    2d46:	d800      	bhi.n	2d4a <__aeabi_ddiv+0x33e>
    2d48:	e104      	b.n	2f54 <__aeabi_ddiv+0x548>
    2d4a:	3d02      	subs	r5, #2
    2d4c:	4441      	add	r1, r8
    2d4e:	9b04      	ldr	r3, [sp, #16]
    2d50:	1acb      	subs	r3, r1, r3
    2d52:	0018      	movs	r0, r3
    2d54:	0039      	movs	r1, r7
    2d56:	9304      	str	r3, [sp, #16]
    2d58:	f7ff f9b2 	bl	20c0 <__udivsi3>
    2d5c:	9b01      	ldr	r3, [sp, #4]
    2d5e:	4682      	mov	sl, r0
    2d60:	4343      	muls	r3, r0
    2d62:	0039      	movs	r1, r7
    2d64:	9804      	ldr	r0, [sp, #16]
    2d66:	9301      	str	r3, [sp, #4]
    2d68:	f7ff fa30 	bl	21cc <__aeabi_uidivmod>
    2d6c:	9801      	ldr	r0, [sp, #4]
    2d6e:	040b      	lsls	r3, r1, #16
    2d70:	0431      	lsls	r1, r6, #16
    2d72:	0c09      	lsrs	r1, r1, #16
    2d74:	4319      	orrs	r1, r3
    2d76:	4288      	cmp	r0, r1
    2d78:	d90d      	bls.n	2d96 <__aeabi_ddiv+0x38a>
    2d7a:	4653      	mov	r3, sl
    2d7c:	4441      	add	r1, r8
    2d7e:	3b01      	subs	r3, #1
    2d80:	4588      	cmp	r8, r1
    2d82:	d900      	bls.n	2d86 <__aeabi_ddiv+0x37a>
    2d84:	e0e8      	b.n	2f58 <__aeabi_ddiv+0x54c>
    2d86:	4288      	cmp	r0, r1
    2d88:	d800      	bhi.n	2d8c <__aeabi_ddiv+0x380>
    2d8a:	e0e5      	b.n	2f58 <__aeabi_ddiv+0x54c>
    2d8c:	2302      	movs	r3, #2
    2d8e:	425b      	negs	r3, r3
    2d90:	469c      	mov	ip, r3
    2d92:	4441      	add	r1, r8
    2d94:	44e2      	add	sl, ip
    2d96:	9b01      	ldr	r3, [sp, #4]
    2d98:	042d      	lsls	r5, r5, #16
    2d9a:	1ace      	subs	r6, r1, r3
    2d9c:	4651      	mov	r1, sl
    2d9e:	4329      	orrs	r1, r5
    2da0:	9d05      	ldr	r5, [sp, #20]
    2da2:	464f      	mov	r7, r9
    2da4:	002a      	movs	r2, r5
    2da6:	040b      	lsls	r3, r1, #16
    2da8:	0c08      	lsrs	r0, r1, #16
    2daa:	0c1b      	lsrs	r3, r3, #16
    2dac:	435a      	muls	r2, r3
    2dae:	4345      	muls	r5, r0
    2db0:	437b      	muls	r3, r7
    2db2:	4378      	muls	r0, r7
    2db4:	195b      	adds	r3, r3, r5
    2db6:	0c17      	lsrs	r7, r2, #16
    2db8:	18fb      	adds	r3, r7, r3
    2dba:	429d      	cmp	r5, r3
    2dbc:	d903      	bls.n	2dc6 <__aeabi_ddiv+0x3ba>
    2dbe:	2580      	movs	r5, #128	; 0x80
    2dc0:	026d      	lsls	r5, r5, #9
    2dc2:	46ac      	mov	ip, r5
    2dc4:	4460      	add	r0, ip
    2dc6:	0c1d      	lsrs	r5, r3, #16
    2dc8:	0412      	lsls	r2, r2, #16
    2dca:	041b      	lsls	r3, r3, #16
    2dcc:	0c12      	lsrs	r2, r2, #16
    2dce:	1828      	adds	r0, r5, r0
    2dd0:	189b      	adds	r3, r3, r2
    2dd2:	4286      	cmp	r6, r0
    2dd4:	d200      	bcs.n	2dd8 <__aeabi_ddiv+0x3cc>
    2dd6:	e093      	b.n	2f00 <__aeabi_ddiv+0x4f4>
    2dd8:	d100      	bne.n	2ddc <__aeabi_ddiv+0x3d0>
    2dda:	e08e      	b.n	2efa <__aeabi_ddiv+0x4ee>
    2ddc:	2301      	movs	r3, #1
    2dde:	4319      	orrs	r1, r3
    2de0:	4ba0      	ldr	r3, [pc, #640]	; (3064 <__aeabi_ddiv+0x658>)
    2de2:	18e3      	adds	r3, r4, r3
    2de4:	2b00      	cmp	r3, #0
    2de6:	dc00      	bgt.n	2dea <__aeabi_ddiv+0x3de>
    2de8:	e099      	b.n	2f1e <__aeabi_ddiv+0x512>
    2dea:	074a      	lsls	r2, r1, #29
    2dec:	d000      	beq.n	2df0 <__aeabi_ddiv+0x3e4>
    2dee:	e09e      	b.n	2f2e <__aeabi_ddiv+0x522>
    2df0:	465a      	mov	r2, fp
    2df2:	01d2      	lsls	r2, r2, #7
    2df4:	d506      	bpl.n	2e04 <__aeabi_ddiv+0x3f8>
    2df6:	465a      	mov	r2, fp
    2df8:	4b9b      	ldr	r3, [pc, #620]	; (3068 <__aeabi_ddiv+0x65c>)
    2dfa:	401a      	ands	r2, r3
    2dfc:	2380      	movs	r3, #128	; 0x80
    2dfe:	4693      	mov	fp, r2
    2e00:	00db      	lsls	r3, r3, #3
    2e02:	18e3      	adds	r3, r4, r3
    2e04:	4a99      	ldr	r2, [pc, #612]	; (306c <__aeabi_ddiv+0x660>)
    2e06:	4293      	cmp	r3, r2
    2e08:	dd68      	ble.n	2edc <__aeabi_ddiv+0x4d0>
    2e0a:	2301      	movs	r3, #1
    2e0c:	9a02      	ldr	r2, [sp, #8]
    2e0e:	4c98      	ldr	r4, [pc, #608]	; (3070 <__aeabi_ddiv+0x664>)
    2e10:	401a      	ands	r2, r3
    2e12:	2300      	movs	r3, #0
    2e14:	4694      	mov	ip, r2
    2e16:	4698      	mov	r8, r3
    2e18:	2200      	movs	r2, #0
    2e1a:	e6c5      	b.n	2ba8 <__aeabi_ddiv+0x19c>
    2e1c:	2280      	movs	r2, #128	; 0x80
    2e1e:	464b      	mov	r3, r9
    2e20:	0312      	lsls	r2, r2, #12
    2e22:	4213      	tst	r3, r2
    2e24:	d00a      	beq.n	2e3c <__aeabi_ddiv+0x430>
    2e26:	465b      	mov	r3, fp
    2e28:	4213      	tst	r3, r2
    2e2a:	d106      	bne.n	2e3a <__aeabi_ddiv+0x42e>
    2e2c:	431a      	orrs	r2, r3
    2e2e:	0312      	lsls	r2, r2, #12
    2e30:	0b12      	lsrs	r2, r2, #12
    2e32:	46ac      	mov	ip, r5
    2e34:	4688      	mov	r8, r1
    2e36:	4c8e      	ldr	r4, [pc, #568]	; (3070 <__aeabi_ddiv+0x664>)
    2e38:	e6b6      	b.n	2ba8 <__aeabi_ddiv+0x19c>
    2e3a:	464b      	mov	r3, r9
    2e3c:	431a      	orrs	r2, r3
    2e3e:	0312      	lsls	r2, r2, #12
    2e40:	0b12      	lsrs	r2, r2, #12
    2e42:	46bc      	mov	ip, r7
    2e44:	4c8a      	ldr	r4, [pc, #552]	; (3070 <__aeabi_ddiv+0x664>)
    2e46:	e6af      	b.n	2ba8 <__aeabi_ddiv+0x19c>
    2e48:	0003      	movs	r3, r0
    2e4a:	465a      	mov	r2, fp
    2e4c:	3b28      	subs	r3, #40	; 0x28
    2e4e:	409a      	lsls	r2, r3
    2e50:	2300      	movs	r3, #0
    2e52:	4691      	mov	r9, r2
    2e54:	4698      	mov	r8, r3
    2e56:	e657      	b.n	2b08 <__aeabi_ddiv+0xfc>
    2e58:	4658      	mov	r0, fp
    2e5a:	f000 ff0d 	bl	3c78 <__clzsi2>
    2e5e:	3020      	adds	r0, #32
    2e60:	e640      	b.n	2ae4 <__aeabi_ddiv+0xd8>
    2e62:	0003      	movs	r3, r0
    2e64:	4652      	mov	r2, sl
    2e66:	3b28      	subs	r3, #40	; 0x28
    2e68:	409a      	lsls	r2, r3
    2e6a:	2100      	movs	r1, #0
    2e6c:	4693      	mov	fp, r2
    2e6e:	e677      	b.n	2b60 <__aeabi_ddiv+0x154>
    2e70:	f000 ff02 	bl	3c78 <__clzsi2>
    2e74:	3020      	adds	r0, #32
    2e76:	e65f      	b.n	2b38 <__aeabi_ddiv+0x12c>
    2e78:	4588      	cmp	r8, r1
    2e7a:	d200      	bcs.n	2e7e <__aeabi_ddiv+0x472>
    2e7c:	e6c7      	b.n	2c0e <__aeabi_ddiv+0x202>
    2e7e:	464b      	mov	r3, r9
    2e80:	07de      	lsls	r6, r3, #31
    2e82:	085d      	lsrs	r5, r3, #1
    2e84:	4643      	mov	r3, r8
    2e86:	085b      	lsrs	r3, r3, #1
    2e88:	431e      	orrs	r6, r3
    2e8a:	4643      	mov	r3, r8
    2e8c:	07db      	lsls	r3, r3, #31
    2e8e:	469a      	mov	sl, r3
    2e90:	e6c2      	b.n	2c18 <__aeabi_ddiv+0x20c>
    2e92:	2500      	movs	r5, #0
    2e94:	4592      	cmp	sl, r2
    2e96:	d300      	bcc.n	2e9a <__aeabi_ddiv+0x48e>
    2e98:	e733      	b.n	2d02 <__aeabi_ddiv+0x2f6>
    2e9a:	9e03      	ldr	r6, [sp, #12]
    2e9c:	4659      	mov	r1, fp
    2e9e:	46b4      	mov	ip, r6
    2ea0:	44e2      	add	sl, ip
    2ea2:	45b2      	cmp	sl, r6
    2ea4:	41ad      	sbcs	r5, r5
    2ea6:	426d      	negs	r5, r5
    2ea8:	4445      	add	r5, r8
    2eaa:	18eb      	adds	r3, r5, r3
    2eac:	3901      	subs	r1, #1
    2eae:	4598      	cmp	r8, r3
    2eb0:	d207      	bcs.n	2ec2 <__aeabi_ddiv+0x4b6>
    2eb2:	4298      	cmp	r0, r3
    2eb4:	d900      	bls.n	2eb8 <__aeabi_ddiv+0x4ac>
    2eb6:	e07f      	b.n	2fb8 <__aeabi_ddiv+0x5ac>
    2eb8:	d100      	bne.n	2ebc <__aeabi_ddiv+0x4b0>
    2eba:	e0bc      	b.n	3036 <__aeabi_ddiv+0x62a>
    2ebc:	1a1d      	subs	r5, r3, r0
    2ebe:	468b      	mov	fp, r1
    2ec0:	e71f      	b.n	2d02 <__aeabi_ddiv+0x2f6>
    2ec2:	4598      	cmp	r8, r3
    2ec4:	d1fa      	bne.n	2ebc <__aeabi_ddiv+0x4b0>
    2ec6:	9d03      	ldr	r5, [sp, #12]
    2ec8:	4555      	cmp	r5, sl
    2eca:	d9f2      	bls.n	2eb2 <__aeabi_ddiv+0x4a6>
    2ecc:	4643      	mov	r3, r8
    2ece:	468b      	mov	fp, r1
    2ed0:	1a1d      	subs	r5, r3, r0
    2ed2:	e716      	b.n	2d02 <__aeabi_ddiv+0x2f6>
    2ed4:	469b      	mov	fp, r3
    2ed6:	e6ca      	b.n	2c6e <__aeabi_ddiv+0x262>
    2ed8:	0015      	movs	r5, r2
    2eda:	e6e7      	b.n	2cac <__aeabi_ddiv+0x2a0>
    2edc:	465a      	mov	r2, fp
    2ede:	08c9      	lsrs	r1, r1, #3
    2ee0:	0752      	lsls	r2, r2, #29
    2ee2:	430a      	orrs	r2, r1
    2ee4:	055b      	lsls	r3, r3, #21
    2ee6:	4690      	mov	r8, r2
    2ee8:	0d5c      	lsrs	r4, r3, #21
    2eea:	465a      	mov	r2, fp
    2eec:	2301      	movs	r3, #1
    2eee:	9902      	ldr	r1, [sp, #8]
    2ef0:	0252      	lsls	r2, r2, #9
    2ef2:	4019      	ands	r1, r3
    2ef4:	0b12      	lsrs	r2, r2, #12
    2ef6:	468c      	mov	ip, r1
    2ef8:	e656      	b.n	2ba8 <__aeabi_ddiv+0x19c>
    2efa:	2b00      	cmp	r3, #0
    2efc:	d100      	bne.n	2f00 <__aeabi_ddiv+0x4f4>
    2efe:	e76f      	b.n	2de0 <__aeabi_ddiv+0x3d4>
    2f00:	4446      	add	r6, r8
    2f02:	1e4a      	subs	r2, r1, #1
    2f04:	45b0      	cmp	r8, r6
    2f06:	d929      	bls.n	2f5c <__aeabi_ddiv+0x550>
    2f08:	0011      	movs	r1, r2
    2f0a:	4286      	cmp	r6, r0
    2f0c:	d000      	beq.n	2f10 <__aeabi_ddiv+0x504>
    2f0e:	e765      	b.n	2ddc <__aeabi_ddiv+0x3d0>
    2f10:	9a03      	ldr	r2, [sp, #12]
    2f12:	4293      	cmp	r3, r2
    2f14:	d000      	beq.n	2f18 <__aeabi_ddiv+0x50c>
    2f16:	e761      	b.n	2ddc <__aeabi_ddiv+0x3d0>
    2f18:	e762      	b.n	2de0 <__aeabi_ddiv+0x3d4>
    2f1a:	2101      	movs	r1, #1
    2f1c:	4249      	negs	r1, r1
    2f1e:	2001      	movs	r0, #1
    2f20:	1ac2      	subs	r2, r0, r3
    2f22:	2a38      	cmp	r2, #56	; 0x38
    2f24:	dd21      	ble.n	2f6a <__aeabi_ddiv+0x55e>
    2f26:	9b02      	ldr	r3, [sp, #8]
    2f28:	4003      	ands	r3, r0
    2f2a:	469c      	mov	ip, r3
    2f2c:	e638      	b.n	2ba0 <__aeabi_ddiv+0x194>
    2f2e:	220f      	movs	r2, #15
    2f30:	400a      	ands	r2, r1
    2f32:	2a04      	cmp	r2, #4
    2f34:	d100      	bne.n	2f38 <__aeabi_ddiv+0x52c>
    2f36:	e75b      	b.n	2df0 <__aeabi_ddiv+0x3e4>
    2f38:	000a      	movs	r2, r1
    2f3a:	1d11      	adds	r1, r2, #4
    2f3c:	4291      	cmp	r1, r2
    2f3e:	4192      	sbcs	r2, r2
    2f40:	4252      	negs	r2, r2
    2f42:	4493      	add	fp, r2
    2f44:	e754      	b.n	2df0 <__aeabi_ddiv+0x3e4>
    2f46:	4b47      	ldr	r3, [pc, #284]	; (3064 <__aeabi_ddiv+0x658>)
    2f48:	18e3      	adds	r3, r4, r3
    2f4a:	2b00      	cmp	r3, #0
    2f4c:	dde5      	ble.n	2f1a <__aeabi_ddiv+0x50e>
    2f4e:	2201      	movs	r2, #1
    2f50:	4252      	negs	r2, r2
    2f52:	e7f2      	b.n	2f3a <__aeabi_ddiv+0x52e>
    2f54:	001d      	movs	r5, r3
    2f56:	e6fa      	b.n	2d4e <__aeabi_ddiv+0x342>
    2f58:	469a      	mov	sl, r3
    2f5a:	e71c      	b.n	2d96 <__aeabi_ddiv+0x38a>
    2f5c:	42b0      	cmp	r0, r6
    2f5e:	d839      	bhi.n	2fd4 <__aeabi_ddiv+0x5c8>
    2f60:	d06e      	beq.n	3040 <__aeabi_ddiv+0x634>
    2f62:	0011      	movs	r1, r2
    2f64:	e73a      	b.n	2ddc <__aeabi_ddiv+0x3d0>
    2f66:	9302      	str	r3, [sp, #8]
    2f68:	e73a      	b.n	2de0 <__aeabi_ddiv+0x3d4>
    2f6a:	2a1f      	cmp	r2, #31
    2f6c:	dc3c      	bgt.n	2fe8 <__aeabi_ddiv+0x5dc>
    2f6e:	2320      	movs	r3, #32
    2f70:	1a9b      	subs	r3, r3, r2
    2f72:	000c      	movs	r4, r1
    2f74:	4658      	mov	r0, fp
    2f76:	4099      	lsls	r1, r3
    2f78:	4098      	lsls	r0, r3
    2f7a:	1e4b      	subs	r3, r1, #1
    2f7c:	4199      	sbcs	r1, r3
    2f7e:	465b      	mov	r3, fp
    2f80:	40d4      	lsrs	r4, r2
    2f82:	40d3      	lsrs	r3, r2
    2f84:	4320      	orrs	r0, r4
    2f86:	4308      	orrs	r0, r1
    2f88:	001a      	movs	r2, r3
    2f8a:	0743      	lsls	r3, r0, #29
    2f8c:	d009      	beq.n	2fa2 <__aeabi_ddiv+0x596>
    2f8e:	230f      	movs	r3, #15
    2f90:	4003      	ands	r3, r0
    2f92:	2b04      	cmp	r3, #4
    2f94:	d005      	beq.n	2fa2 <__aeabi_ddiv+0x596>
    2f96:	0001      	movs	r1, r0
    2f98:	1d08      	adds	r0, r1, #4
    2f9a:	4288      	cmp	r0, r1
    2f9c:	419b      	sbcs	r3, r3
    2f9e:	425b      	negs	r3, r3
    2fa0:	18d2      	adds	r2, r2, r3
    2fa2:	0213      	lsls	r3, r2, #8
    2fa4:	d53a      	bpl.n	301c <__aeabi_ddiv+0x610>
    2fa6:	2301      	movs	r3, #1
    2fa8:	9a02      	ldr	r2, [sp, #8]
    2faa:	2401      	movs	r4, #1
    2fac:	401a      	ands	r2, r3
    2fae:	2300      	movs	r3, #0
    2fb0:	4694      	mov	ip, r2
    2fb2:	4698      	mov	r8, r3
    2fb4:	2200      	movs	r2, #0
    2fb6:	e5f7      	b.n	2ba8 <__aeabi_ddiv+0x19c>
    2fb8:	2102      	movs	r1, #2
    2fba:	4249      	negs	r1, r1
    2fbc:	468c      	mov	ip, r1
    2fbe:	9d03      	ldr	r5, [sp, #12]
    2fc0:	44e3      	add	fp, ip
    2fc2:	46ac      	mov	ip, r5
    2fc4:	44e2      	add	sl, ip
    2fc6:	45aa      	cmp	sl, r5
    2fc8:	41ad      	sbcs	r5, r5
    2fca:	426d      	negs	r5, r5
    2fcc:	4445      	add	r5, r8
    2fce:	18ed      	adds	r5, r5, r3
    2fd0:	1a2d      	subs	r5, r5, r0
    2fd2:	e696      	b.n	2d02 <__aeabi_ddiv+0x2f6>
    2fd4:	1e8a      	subs	r2, r1, #2
    2fd6:	9903      	ldr	r1, [sp, #12]
    2fd8:	004d      	lsls	r5, r1, #1
    2fda:	428d      	cmp	r5, r1
    2fdc:	4189      	sbcs	r1, r1
    2fde:	4249      	negs	r1, r1
    2fe0:	4441      	add	r1, r8
    2fe2:	1876      	adds	r6, r6, r1
    2fe4:	9503      	str	r5, [sp, #12]
    2fe6:	e78f      	b.n	2f08 <__aeabi_ddiv+0x4fc>
    2fe8:	201f      	movs	r0, #31
    2fea:	4240      	negs	r0, r0
    2fec:	1ac3      	subs	r3, r0, r3
    2fee:	4658      	mov	r0, fp
    2ff0:	40d8      	lsrs	r0, r3
    2ff2:	0003      	movs	r3, r0
    2ff4:	2a20      	cmp	r2, #32
    2ff6:	d028      	beq.n	304a <__aeabi_ddiv+0x63e>
    2ff8:	2040      	movs	r0, #64	; 0x40
    2ffa:	465d      	mov	r5, fp
    2ffc:	1a82      	subs	r2, r0, r2
    2ffe:	4095      	lsls	r5, r2
    3000:	4329      	orrs	r1, r5
    3002:	1e4a      	subs	r2, r1, #1
    3004:	4191      	sbcs	r1, r2
    3006:	4319      	orrs	r1, r3
    3008:	2307      	movs	r3, #7
    300a:	2200      	movs	r2, #0
    300c:	400b      	ands	r3, r1
    300e:	d009      	beq.n	3024 <__aeabi_ddiv+0x618>
    3010:	230f      	movs	r3, #15
    3012:	2200      	movs	r2, #0
    3014:	400b      	ands	r3, r1
    3016:	0008      	movs	r0, r1
    3018:	2b04      	cmp	r3, #4
    301a:	d1bd      	bne.n	2f98 <__aeabi_ddiv+0x58c>
    301c:	0001      	movs	r1, r0
    301e:	0753      	lsls	r3, r2, #29
    3020:	0252      	lsls	r2, r2, #9
    3022:	0b12      	lsrs	r2, r2, #12
    3024:	08c9      	lsrs	r1, r1, #3
    3026:	4319      	orrs	r1, r3
    3028:	2301      	movs	r3, #1
    302a:	4688      	mov	r8, r1
    302c:	9902      	ldr	r1, [sp, #8]
    302e:	2400      	movs	r4, #0
    3030:	4019      	ands	r1, r3
    3032:	468c      	mov	ip, r1
    3034:	e5b8      	b.n	2ba8 <__aeabi_ddiv+0x19c>
    3036:	4552      	cmp	r2, sl
    3038:	d8be      	bhi.n	2fb8 <__aeabi_ddiv+0x5ac>
    303a:	468b      	mov	fp, r1
    303c:	2500      	movs	r5, #0
    303e:	e660      	b.n	2d02 <__aeabi_ddiv+0x2f6>
    3040:	9d03      	ldr	r5, [sp, #12]
    3042:	429d      	cmp	r5, r3
    3044:	d3c6      	bcc.n	2fd4 <__aeabi_ddiv+0x5c8>
    3046:	0011      	movs	r1, r2
    3048:	e762      	b.n	2f10 <__aeabi_ddiv+0x504>
    304a:	2500      	movs	r5, #0
    304c:	e7d8      	b.n	3000 <__aeabi_ddiv+0x5f4>
    304e:	2280      	movs	r2, #128	; 0x80
    3050:	465b      	mov	r3, fp
    3052:	0312      	lsls	r2, r2, #12
    3054:	431a      	orrs	r2, r3
    3056:	9b01      	ldr	r3, [sp, #4]
    3058:	0312      	lsls	r2, r2, #12
    305a:	0b12      	lsrs	r2, r2, #12
    305c:	469c      	mov	ip, r3
    305e:	4688      	mov	r8, r1
    3060:	4c03      	ldr	r4, [pc, #12]	; (3070 <__aeabi_ddiv+0x664>)
    3062:	e5a1      	b.n	2ba8 <__aeabi_ddiv+0x19c>
    3064:	000003ff 	.word	0x000003ff
    3068:	feffffff 	.word	0xfeffffff
    306c:	000007fe 	.word	0x000007fe
    3070:	000007ff 	.word	0x000007ff

00003074 <__aeabi_dmul>:
    3074:	b5f0      	push	{r4, r5, r6, r7, lr}
    3076:	4657      	mov	r7, sl
    3078:	4645      	mov	r5, r8
    307a:	46de      	mov	lr, fp
    307c:	464e      	mov	r6, r9
    307e:	b5e0      	push	{r5, r6, r7, lr}
    3080:	030c      	lsls	r4, r1, #12
    3082:	4698      	mov	r8, r3
    3084:	004e      	lsls	r6, r1, #1
    3086:	0b23      	lsrs	r3, r4, #12
    3088:	b087      	sub	sp, #28
    308a:	0007      	movs	r7, r0
    308c:	4692      	mov	sl, r2
    308e:	469b      	mov	fp, r3
    3090:	0d76      	lsrs	r6, r6, #21
    3092:	0fcd      	lsrs	r5, r1, #31
    3094:	2e00      	cmp	r6, #0
    3096:	d06b      	beq.n	3170 <__aeabi_dmul+0xfc>
    3098:	4b6d      	ldr	r3, [pc, #436]	; (3250 <__aeabi_dmul+0x1dc>)
    309a:	429e      	cmp	r6, r3
    309c:	d035      	beq.n	310a <__aeabi_dmul+0x96>
    309e:	2480      	movs	r4, #128	; 0x80
    30a0:	465b      	mov	r3, fp
    30a2:	0f42      	lsrs	r2, r0, #29
    30a4:	0424      	lsls	r4, r4, #16
    30a6:	00db      	lsls	r3, r3, #3
    30a8:	4314      	orrs	r4, r2
    30aa:	431c      	orrs	r4, r3
    30ac:	00c3      	lsls	r3, r0, #3
    30ae:	4699      	mov	r9, r3
    30b0:	4b68      	ldr	r3, [pc, #416]	; (3254 <__aeabi_dmul+0x1e0>)
    30b2:	46a3      	mov	fp, r4
    30b4:	469c      	mov	ip, r3
    30b6:	2300      	movs	r3, #0
    30b8:	2700      	movs	r7, #0
    30ba:	4466      	add	r6, ip
    30bc:	9302      	str	r3, [sp, #8]
    30be:	4643      	mov	r3, r8
    30c0:	031c      	lsls	r4, r3, #12
    30c2:	005a      	lsls	r2, r3, #1
    30c4:	0fdb      	lsrs	r3, r3, #31
    30c6:	4650      	mov	r0, sl
    30c8:	0b24      	lsrs	r4, r4, #12
    30ca:	0d52      	lsrs	r2, r2, #21
    30cc:	4698      	mov	r8, r3
    30ce:	d100      	bne.n	30d2 <__aeabi_dmul+0x5e>
    30d0:	e076      	b.n	31c0 <__aeabi_dmul+0x14c>
    30d2:	4b5f      	ldr	r3, [pc, #380]	; (3250 <__aeabi_dmul+0x1dc>)
    30d4:	429a      	cmp	r2, r3
    30d6:	d06d      	beq.n	31b4 <__aeabi_dmul+0x140>
    30d8:	2380      	movs	r3, #128	; 0x80
    30da:	0f41      	lsrs	r1, r0, #29
    30dc:	041b      	lsls	r3, r3, #16
    30de:	430b      	orrs	r3, r1
    30e0:	495c      	ldr	r1, [pc, #368]	; (3254 <__aeabi_dmul+0x1e0>)
    30e2:	00e4      	lsls	r4, r4, #3
    30e4:	468c      	mov	ip, r1
    30e6:	431c      	orrs	r4, r3
    30e8:	00c3      	lsls	r3, r0, #3
    30ea:	2000      	movs	r0, #0
    30ec:	4462      	add	r2, ip
    30ee:	4641      	mov	r1, r8
    30f0:	18b6      	adds	r6, r6, r2
    30f2:	4069      	eors	r1, r5
    30f4:	1c72      	adds	r2, r6, #1
    30f6:	9101      	str	r1, [sp, #4]
    30f8:	4694      	mov	ip, r2
    30fa:	4307      	orrs	r7, r0
    30fc:	2f0f      	cmp	r7, #15
    30fe:	d900      	bls.n	3102 <__aeabi_dmul+0x8e>
    3100:	e0b0      	b.n	3264 <__aeabi_dmul+0x1f0>
    3102:	4a55      	ldr	r2, [pc, #340]	; (3258 <__aeabi_dmul+0x1e4>)
    3104:	00bf      	lsls	r7, r7, #2
    3106:	59d2      	ldr	r2, [r2, r7]
    3108:	4697      	mov	pc, r2
    310a:	465b      	mov	r3, fp
    310c:	4303      	orrs	r3, r0
    310e:	4699      	mov	r9, r3
    3110:	d000      	beq.n	3114 <__aeabi_dmul+0xa0>
    3112:	e087      	b.n	3224 <__aeabi_dmul+0x1b0>
    3114:	2300      	movs	r3, #0
    3116:	469b      	mov	fp, r3
    3118:	3302      	adds	r3, #2
    311a:	2708      	movs	r7, #8
    311c:	9302      	str	r3, [sp, #8]
    311e:	e7ce      	b.n	30be <__aeabi_dmul+0x4a>
    3120:	4642      	mov	r2, r8
    3122:	9201      	str	r2, [sp, #4]
    3124:	2802      	cmp	r0, #2
    3126:	d067      	beq.n	31f8 <__aeabi_dmul+0x184>
    3128:	2803      	cmp	r0, #3
    312a:	d100      	bne.n	312e <__aeabi_dmul+0xba>
    312c:	e20e      	b.n	354c <__aeabi_dmul+0x4d8>
    312e:	2801      	cmp	r0, #1
    3130:	d000      	beq.n	3134 <__aeabi_dmul+0xc0>
    3132:	e162      	b.n	33fa <__aeabi_dmul+0x386>
    3134:	2300      	movs	r3, #0
    3136:	2400      	movs	r4, #0
    3138:	2200      	movs	r2, #0
    313a:	4699      	mov	r9, r3
    313c:	9901      	ldr	r1, [sp, #4]
    313e:	4001      	ands	r1, r0
    3140:	b2cd      	uxtb	r5, r1
    3142:	2100      	movs	r1, #0
    3144:	0312      	lsls	r2, r2, #12
    3146:	0d0b      	lsrs	r3, r1, #20
    3148:	0b12      	lsrs	r2, r2, #12
    314a:	051b      	lsls	r3, r3, #20
    314c:	4313      	orrs	r3, r2
    314e:	4a43      	ldr	r2, [pc, #268]	; (325c <__aeabi_dmul+0x1e8>)
    3150:	0524      	lsls	r4, r4, #20
    3152:	4013      	ands	r3, r2
    3154:	431c      	orrs	r4, r3
    3156:	0064      	lsls	r4, r4, #1
    3158:	07ed      	lsls	r5, r5, #31
    315a:	0864      	lsrs	r4, r4, #1
    315c:	432c      	orrs	r4, r5
    315e:	4648      	mov	r0, r9
    3160:	0021      	movs	r1, r4
    3162:	b007      	add	sp, #28
    3164:	bc3c      	pop	{r2, r3, r4, r5}
    3166:	4690      	mov	r8, r2
    3168:	4699      	mov	r9, r3
    316a:	46a2      	mov	sl, r4
    316c:	46ab      	mov	fp, r5
    316e:	bdf0      	pop	{r4, r5, r6, r7, pc}
    3170:	4303      	orrs	r3, r0
    3172:	4699      	mov	r9, r3
    3174:	d04f      	beq.n	3216 <__aeabi_dmul+0x1a2>
    3176:	465b      	mov	r3, fp
    3178:	2b00      	cmp	r3, #0
    317a:	d100      	bne.n	317e <__aeabi_dmul+0x10a>
    317c:	e189      	b.n	3492 <__aeabi_dmul+0x41e>
    317e:	4658      	mov	r0, fp
    3180:	f000 fd7a 	bl	3c78 <__clzsi2>
    3184:	0003      	movs	r3, r0
    3186:	3b0b      	subs	r3, #11
    3188:	2b1c      	cmp	r3, #28
    318a:	dd00      	ble.n	318e <__aeabi_dmul+0x11a>
    318c:	e17a      	b.n	3484 <__aeabi_dmul+0x410>
    318e:	221d      	movs	r2, #29
    3190:	1ad3      	subs	r3, r2, r3
    3192:	003a      	movs	r2, r7
    3194:	0001      	movs	r1, r0
    3196:	465c      	mov	r4, fp
    3198:	40da      	lsrs	r2, r3
    319a:	3908      	subs	r1, #8
    319c:	408c      	lsls	r4, r1
    319e:	0013      	movs	r3, r2
    31a0:	408f      	lsls	r7, r1
    31a2:	4323      	orrs	r3, r4
    31a4:	469b      	mov	fp, r3
    31a6:	46b9      	mov	r9, r7
    31a8:	2300      	movs	r3, #0
    31aa:	4e2d      	ldr	r6, [pc, #180]	; (3260 <__aeabi_dmul+0x1ec>)
    31ac:	2700      	movs	r7, #0
    31ae:	1a36      	subs	r6, r6, r0
    31b0:	9302      	str	r3, [sp, #8]
    31b2:	e784      	b.n	30be <__aeabi_dmul+0x4a>
    31b4:	4653      	mov	r3, sl
    31b6:	4323      	orrs	r3, r4
    31b8:	d12a      	bne.n	3210 <__aeabi_dmul+0x19c>
    31ba:	2400      	movs	r4, #0
    31bc:	2002      	movs	r0, #2
    31be:	e796      	b.n	30ee <__aeabi_dmul+0x7a>
    31c0:	4653      	mov	r3, sl
    31c2:	4323      	orrs	r3, r4
    31c4:	d020      	beq.n	3208 <__aeabi_dmul+0x194>
    31c6:	2c00      	cmp	r4, #0
    31c8:	d100      	bne.n	31cc <__aeabi_dmul+0x158>
    31ca:	e157      	b.n	347c <__aeabi_dmul+0x408>
    31cc:	0020      	movs	r0, r4
    31ce:	f000 fd53 	bl	3c78 <__clzsi2>
    31d2:	0003      	movs	r3, r0
    31d4:	3b0b      	subs	r3, #11
    31d6:	2b1c      	cmp	r3, #28
    31d8:	dd00      	ble.n	31dc <__aeabi_dmul+0x168>
    31da:	e149      	b.n	3470 <__aeabi_dmul+0x3fc>
    31dc:	211d      	movs	r1, #29
    31de:	1acb      	subs	r3, r1, r3
    31e0:	4651      	mov	r1, sl
    31e2:	0002      	movs	r2, r0
    31e4:	40d9      	lsrs	r1, r3
    31e6:	4653      	mov	r3, sl
    31e8:	3a08      	subs	r2, #8
    31ea:	4094      	lsls	r4, r2
    31ec:	4093      	lsls	r3, r2
    31ee:	430c      	orrs	r4, r1
    31f0:	4a1b      	ldr	r2, [pc, #108]	; (3260 <__aeabi_dmul+0x1ec>)
    31f2:	1a12      	subs	r2, r2, r0
    31f4:	2000      	movs	r0, #0
    31f6:	e77a      	b.n	30ee <__aeabi_dmul+0x7a>
    31f8:	2501      	movs	r5, #1
    31fa:	9b01      	ldr	r3, [sp, #4]
    31fc:	4c14      	ldr	r4, [pc, #80]	; (3250 <__aeabi_dmul+0x1dc>)
    31fe:	401d      	ands	r5, r3
    3200:	2300      	movs	r3, #0
    3202:	2200      	movs	r2, #0
    3204:	4699      	mov	r9, r3
    3206:	e79c      	b.n	3142 <__aeabi_dmul+0xce>
    3208:	2400      	movs	r4, #0
    320a:	2200      	movs	r2, #0
    320c:	2001      	movs	r0, #1
    320e:	e76e      	b.n	30ee <__aeabi_dmul+0x7a>
    3210:	4653      	mov	r3, sl
    3212:	2003      	movs	r0, #3
    3214:	e76b      	b.n	30ee <__aeabi_dmul+0x7a>
    3216:	2300      	movs	r3, #0
    3218:	469b      	mov	fp, r3
    321a:	3301      	adds	r3, #1
    321c:	2704      	movs	r7, #4
    321e:	2600      	movs	r6, #0
    3220:	9302      	str	r3, [sp, #8]
    3222:	e74c      	b.n	30be <__aeabi_dmul+0x4a>
    3224:	2303      	movs	r3, #3
    3226:	4681      	mov	r9, r0
    3228:	270c      	movs	r7, #12
    322a:	9302      	str	r3, [sp, #8]
    322c:	e747      	b.n	30be <__aeabi_dmul+0x4a>
    322e:	2280      	movs	r2, #128	; 0x80
    3230:	2300      	movs	r3, #0
    3232:	2500      	movs	r5, #0
    3234:	0312      	lsls	r2, r2, #12
    3236:	4699      	mov	r9, r3
    3238:	4c05      	ldr	r4, [pc, #20]	; (3250 <__aeabi_dmul+0x1dc>)
    323a:	e782      	b.n	3142 <__aeabi_dmul+0xce>
    323c:	465c      	mov	r4, fp
    323e:	464b      	mov	r3, r9
    3240:	9802      	ldr	r0, [sp, #8]
    3242:	e76f      	b.n	3124 <__aeabi_dmul+0xb0>
    3244:	465c      	mov	r4, fp
    3246:	464b      	mov	r3, r9
    3248:	9501      	str	r5, [sp, #4]
    324a:	9802      	ldr	r0, [sp, #8]
    324c:	e76a      	b.n	3124 <__aeabi_dmul+0xb0>
    324e:	46c0      	nop			; (mov r8, r8)
    3250:	000007ff 	.word	0x000007ff
    3254:	fffffc01 	.word	0xfffffc01
    3258:	00004640 	.word	0x00004640
    325c:	800fffff 	.word	0x800fffff
    3260:	fffffc0d 	.word	0xfffffc0d
    3264:	464a      	mov	r2, r9
    3266:	4649      	mov	r1, r9
    3268:	0c17      	lsrs	r7, r2, #16
    326a:	0c1a      	lsrs	r2, r3, #16
    326c:	041b      	lsls	r3, r3, #16
    326e:	0c1b      	lsrs	r3, r3, #16
    3270:	0408      	lsls	r0, r1, #16
    3272:	0019      	movs	r1, r3
    3274:	0c00      	lsrs	r0, r0, #16
    3276:	4341      	muls	r1, r0
    3278:	0015      	movs	r5, r2
    327a:	4688      	mov	r8, r1
    327c:	0019      	movs	r1, r3
    327e:	437d      	muls	r5, r7
    3280:	4379      	muls	r1, r7
    3282:	9503      	str	r5, [sp, #12]
    3284:	4689      	mov	r9, r1
    3286:	0029      	movs	r1, r5
    3288:	0015      	movs	r5, r2
    328a:	4345      	muls	r5, r0
    328c:	444d      	add	r5, r9
    328e:	9502      	str	r5, [sp, #8]
    3290:	4645      	mov	r5, r8
    3292:	0c2d      	lsrs	r5, r5, #16
    3294:	46aa      	mov	sl, r5
    3296:	9d02      	ldr	r5, [sp, #8]
    3298:	4455      	add	r5, sl
    329a:	45a9      	cmp	r9, r5
    329c:	d906      	bls.n	32ac <__aeabi_dmul+0x238>
    329e:	468a      	mov	sl, r1
    32a0:	2180      	movs	r1, #128	; 0x80
    32a2:	0249      	lsls	r1, r1, #9
    32a4:	4689      	mov	r9, r1
    32a6:	44ca      	add	sl, r9
    32a8:	4651      	mov	r1, sl
    32aa:	9103      	str	r1, [sp, #12]
    32ac:	0c29      	lsrs	r1, r5, #16
    32ae:	9104      	str	r1, [sp, #16]
    32b0:	4641      	mov	r1, r8
    32b2:	0409      	lsls	r1, r1, #16
    32b4:	042d      	lsls	r5, r5, #16
    32b6:	0c09      	lsrs	r1, r1, #16
    32b8:	4688      	mov	r8, r1
    32ba:	0029      	movs	r1, r5
    32bc:	0c25      	lsrs	r5, r4, #16
    32be:	0424      	lsls	r4, r4, #16
    32c0:	4441      	add	r1, r8
    32c2:	0c24      	lsrs	r4, r4, #16
    32c4:	9105      	str	r1, [sp, #20]
    32c6:	0021      	movs	r1, r4
    32c8:	4341      	muls	r1, r0
    32ca:	4688      	mov	r8, r1
    32cc:	0021      	movs	r1, r4
    32ce:	4379      	muls	r1, r7
    32d0:	468a      	mov	sl, r1
    32d2:	4368      	muls	r0, r5
    32d4:	4641      	mov	r1, r8
    32d6:	4450      	add	r0, sl
    32d8:	4681      	mov	r9, r0
    32da:	0c08      	lsrs	r0, r1, #16
    32dc:	4448      	add	r0, r9
    32de:	436f      	muls	r7, r5
    32e0:	4582      	cmp	sl, r0
    32e2:	d903      	bls.n	32ec <__aeabi_dmul+0x278>
    32e4:	2180      	movs	r1, #128	; 0x80
    32e6:	0249      	lsls	r1, r1, #9
    32e8:	4689      	mov	r9, r1
    32ea:	444f      	add	r7, r9
    32ec:	0c01      	lsrs	r1, r0, #16
    32ee:	4689      	mov	r9, r1
    32f0:	0039      	movs	r1, r7
    32f2:	4449      	add	r1, r9
    32f4:	9102      	str	r1, [sp, #8]
    32f6:	4641      	mov	r1, r8
    32f8:	040f      	lsls	r7, r1, #16
    32fa:	9904      	ldr	r1, [sp, #16]
    32fc:	0c3f      	lsrs	r7, r7, #16
    32fe:	4688      	mov	r8, r1
    3300:	0400      	lsls	r0, r0, #16
    3302:	19c0      	adds	r0, r0, r7
    3304:	4480      	add	r8, r0
    3306:	4641      	mov	r1, r8
    3308:	9104      	str	r1, [sp, #16]
    330a:	4659      	mov	r1, fp
    330c:	0c0f      	lsrs	r7, r1, #16
    330e:	0409      	lsls	r1, r1, #16
    3310:	0c09      	lsrs	r1, r1, #16
    3312:	4688      	mov	r8, r1
    3314:	4359      	muls	r1, r3
    3316:	468a      	mov	sl, r1
    3318:	0039      	movs	r1, r7
    331a:	4351      	muls	r1, r2
    331c:	4689      	mov	r9, r1
    331e:	4641      	mov	r1, r8
    3320:	434a      	muls	r2, r1
    3322:	4651      	mov	r1, sl
    3324:	0c09      	lsrs	r1, r1, #16
    3326:	468b      	mov	fp, r1
    3328:	437b      	muls	r3, r7
    332a:	18d2      	adds	r2, r2, r3
    332c:	445a      	add	r2, fp
    332e:	4293      	cmp	r3, r2
    3330:	d903      	bls.n	333a <__aeabi_dmul+0x2c6>
    3332:	2380      	movs	r3, #128	; 0x80
    3334:	025b      	lsls	r3, r3, #9
    3336:	469b      	mov	fp, r3
    3338:	44d9      	add	r9, fp
    333a:	4651      	mov	r1, sl
    333c:	0409      	lsls	r1, r1, #16
    333e:	0c09      	lsrs	r1, r1, #16
    3340:	468a      	mov	sl, r1
    3342:	4641      	mov	r1, r8
    3344:	4361      	muls	r1, r4
    3346:	437c      	muls	r4, r7
    3348:	0c13      	lsrs	r3, r2, #16
    334a:	0412      	lsls	r2, r2, #16
    334c:	444b      	add	r3, r9
    334e:	4452      	add	r2, sl
    3350:	46a1      	mov	r9, r4
    3352:	468a      	mov	sl, r1
    3354:	003c      	movs	r4, r7
    3356:	4641      	mov	r1, r8
    3358:	436c      	muls	r4, r5
    335a:	434d      	muls	r5, r1
    335c:	4651      	mov	r1, sl
    335e:	444d      	add	r5, r9
    3360:	0c0f      	lsrs	r7, r1, #16
    3362:	197d      	adds	r5, r7, r5
    3364:	45a9      	cmp	r9, r5
    3366:	d903      	bls.n	3370 <__aeabi_dmul+0x2fc>
    3368:	2180      	movs	r1, #128	; 0x80
    336a:	0249      	lsls	r1, r1, #9
    336c:	4688      	mov	r8, r1
    336e:	4444      	add	r4, r8
    3370:	9f04      	ldr	r7, [sp, #16]
    3372:	9903      	ldr	r1, [sp, #12]
    3374:	46b8      	mov	r8, r7
    3376:	4441      	add	r1, r8
    3378:	468b      	mov	fp, r1
    337a:	4583      	cmp	fp, r0
    337c:	4180      	sbcs	r0, r0
    337e:	4241      	negs	r1, r0
    3380:	4688      	mov	r8, r1
    3382:	4651      	mov	r1, sl
    3384:	0408      	lsls	r0, r1, #16
    3386:	042f      	lsls	r7, r5, #16
    3388:	0c00      	lsrs	r0, r0, #16
    338a:	183f      	adds	r7, r7, r0
    338c:	4658      	mov	r0, fp
    338e:	9902      	ldr	r1, [sp, #8]
    3390:	1810      	adds	r0, r2, r0
    3392:	4689      	mov	r9, r1
    3394:	4290      	cmp	r0, r2
    3396:	4192      	sbcs	r2, r2
    3398:	444f      	add	r7, r9
    339a:	46ba      	mov	sl, r7
    339c:	4252      	negs	r2, r2
    339e:	4699      	mov	r9, r3
    33a0:	4693      	mov	fp, r2
    33a2:	44c2      	add	sl, r8
    33a4:	44d1      	add	r9, sl
    33a6:	44cb      	add	fp, r9
    33a8:	428f      	cmp	r7, r1
    33aa:	41bf      	sbcs	r7, r7
    33ac:	45c2      	cmp	sl, r8
    33ae:	4189      	sbcs	r1, r1
    33b0:	4599      	cmp	r9, r3
    33b2:	419b      	sbcs	r3, r3
    33b4:	4593      	cmp	fp, r2
    33b6:	4192      	sbcs	r2, r2
    33b8:	427f      	negs	r7, r7
    33ba:	4249      	negs	r1, r1
    33bc:	0c2d      	lsrs	r5, r5, #16
    33be:	4252      	negs	r2, r2
    33c0:	430f      	orrs	r7, r1
    33c2:	425b      	negs	r3, r3
    33c4:	4313      	orrs	r3, r2
    33c6:	197f      	adds	r7, r7, r5
    33c8:	18ff      	adds	r7, r7, r3
    33ca:	465b      	mov	r3, fp
    33cc:	193c      	adds	r4, r7, r4
    33ce:	0ddb      	lsrs	r3, r3, #23
    33d0:	9a05      	ldr	r2, [sp, #20]
    33d2:	0264      	lsls	r4, r4, #9
    33d4:	431c      	orrs	r4, r3
    33d6:	0243      	lsls	r3, r0, #9
    33d8:	4313      	orrs	r3, r2
    33da:	1e5d      	subs	r5, r3, #1
    33dc:	41ab      	sbcs	r3, r5
    33de:	465a      	mov	r2, fp
    33e0:	0dc0      	lsrs	r0, r0, #23
    33e2:	4303      	orrs	r3, r0
    33e4:	0252      	lsls	r2, r2, #9
    33e6:	4313      	orrs	r3, r2
    33e8:	01e2      	lsls	r2, r4, #7
    33ea:	d556      	bpl.n	349a <__aeabi_dmul+0x426>
    33ec:	2001      	movs	r0, #1
    33ee:	085a      	lsrs	r2, r3, #1
    33f0:	4003      	ands	r3, r0
    33f2:	4313      	orrs	r3, r2
    33f4:	07e2      	lsls	r2, r4, #31
    33f6:	4313      	orrs	r3, r2
    33f8:	0864      	lsrs	r4, r4, #1
    33fa:	485a      	ldr	r0, [pc, #360]	; (3564 <__aeabi_dmul+0x4f0>)
    33fc:	4460      	add	r0, ip
    33fe:	2800      	cmp	r0, #0
    3400:	dd4d      	ble.n	349e <__aeabi_dmul+0x42a>
    3402:	075a      	lsls	r2, r3, #29
    3404:	d009      	beq.n	341a <__aeabi_dmul+0x3a6>
    3406:	220f      	movs	r2, #15
    3408:	401a      	ands	r2, r3
    340a:	2a04      	cmp	r2, #4
    340c:	d005      	beq.n	341a <__aeabi_dmul+0x3a6>
    340e:	1d1a      	adds	r2, r3, #4
    3410:	429a      	cmp	r2, r3
    3412:	419b      	sbcs	r3, r3
    3414:	425b      	negs	r3, r3
    3416:	18e4      	adds	r4, r4, r3
    3418:	0013      	movs	r3, r2
    341a:	01e2      	lsls	r2, r4, #7
    341c:	d504      	bpl.n	3428 <__aeabi_dmul+0x3b4>
    341e:	2080      	movs	r0, #128	; 0x80
    3420:	4a51      	ldr	r2, [pc, #324]	; (3568 <__aeabi_dmul+0x4f4>)
    3422:	00c0      	lsls	r0, r0, #3
    3424:	4014      	ands	r4, r2
    3426:	4460      	add	r0, ip
    3428:	4a50      	ldr	r2, [pc, #320]	; (356c <__aeabi_dmul+0x4f8>)
    342a:	4290      	cmp	r0, r2
    342c:	dd00      	ble.n	3430 <__aeabi_dmul+0x3bc>
    342e:	e6e3      	b.n	31f8 <__aeabi_dmul+0x184>
    3430:	2501      	movs	r5, #1
    3432:	08db      	lsrs	r3, r3, #3
    3434:	0762      	lsls	r2, r4, #29
    3436:	431a      	orrs	r2, r3
    3438:	0264      	lsls	r4, r4, #9
    343a:	9b01      	ldr	r3, [sp, #4]
    343c:	4691      	mov	r9, r2
    343e:	0b22      	lsrs	r2, r4, #12
    3440:	0544      	lsls	r4, r0, #21
    3442:	0d64      	lsrs	r4, r4, #21
    3444:	401d      	ands	r5, r3
    3446:	e67c      	b.n	3142 <__aeabi_dmul+0xce>
    3448:	2280      	movs	r2, #128	; 0x80
    344a:	4659      	mov	r1, fp
    344c:	0312      	lsls	r2, r2, #12
    344e:	4211      	tst	r1, r2
    3450:	d008      	beq.n	3464 <__aeabi_dmul+0x3f0>
    3452:	4214      	tst	r4, r2
    3454:	d106      	bne.n	3464 <__aeabi_dmul+0x3f0>
    3456:	4322      	orrs	r2, r4
    3458:	0312      	lsls	r2, r2, #12
    345a:	0b12      	lsrs	r2, r2, #12
    345c:	4645      	mov	r5, r8
    345e:	4699      	mov	r9, r3
    3460:	4c43      	ldr	r4, [pc, #268]	; (3570 <__aeabi_dmul+0x4fc>)
    3462:	e66e      	b.n	3142 <__aeabi_dmul+0xce>
    3464:	465b      	mov	r3, fp
    3466:	431a      	orrs	r2, r3
    3468:	0312      	lsls	r2, r2, #12
    346a:	0b12      	lsrs	r2, r2, #12
    346c:	4c40      	ldr	r4, [pc, #256]	; (3570 <__aeabi_dmul+0x4fc>)
    346e:	e668      	b.n	3142 <__aeabi_dmul+0xce>
    3470:	0003      	movs	r3, r0
    3472:	4654      	mov	r4, sl
    3474:	3b28      	subs	r3, #40	; 0x28
    3476:	409c      	lsls	r4, r3
    3478:	2300      	movs	r3, #0
    347a:	e6b9      	b.n	31f0 <__aeabi_dmul+0x17c>
    347c:	f000 fbfc 	bl	3c78 <__clzsi2>
    3480:	3020      	adds	r0, #32
    3482:	e6a6      	b.n	31d2 <__aeabi_dmul+0x15e>
    3484:	0003      	movs	r3, r0
    3486:	3b28      	subs	r3, #40	; 0x28
    3488:	409f      	lsls	r7, r3
    348a:	2300      	movs	r3, #0
    348c:	46bb      	mov	fp, r7
    348e:	4699      	mov	r9, r3
    3490:	e68a      	b.n	31a8 <__aeabi_dmul+0x134>
    3492:	f000 fbf1 	bl	3c78 <__clzsi2>
    3496:	3020      	adds	r0, #32
    3498:	e674      	b.n	3184 <__aeabi_dmul+0x110>
    349a:	46b4      	mov	ip, r6
    349c:	e7ad      	b.n	33fa <__aeabi_dmul+0x386>
    349e:	2501      	movs	r5, #1
    34a0:	1a2a      	subs	r2, r5, r0
    34a2:	2a38      	cmp	r2, #56	; 0x38
    34a4:	dd06      	ble.n	34b4 <__aeabi_dmul+0x440>
    34a6:	9b01      	ldr	r3, [sp, #4]
    34a8:	2400      	movs	r4, #0
    34aa:	401d      	ands	r5, r3
    34ac:	2300      	movs	r3, #0
    34ae:	2200      	movs	r2, #0
    34b0:	4699      	mov	r9, r3
    34b2:	e646      	b.n	3142 <__aeabi_dmul+0xce>
    34b4:	2a1f      	cmp	r2, #31
    34b6:	dc21      	bgt.n	34fc <__aeabi_dmul+0x488>
    34b8:	2520      	movs	r5, #32
    34ba:	0020      	movs	r0, r4
    34bc:	1aad      	subs	r5, r5, r2
    34be:	001e      	movs	r6, r3
    34c0:	40ab      	lsls	r3, r5
    34c2:	40a8      	lsls	r0, r5
    34c4:	40d6      	lsrs	r6, r2
    34c6:	1e5d      	subs	r5, r3, #1
    34c8:	41ab      	sbcs	r3, r5
    34ca:	4330      	orrs	r0, r6
    34cc:	4318      	orrs	r0, r3
    34ce:	40d4      	lsrs	r4, r2
    34d0:	0743      	lsls	r3, r0, #29
    34d2:	d009      	beq.n	34e8 <__aeabi_dmul+0x474>
    34d4:	230f      	movs	r3, #15
    34d6:	4003      	ands	r3, r0
    34d8:	2b04      	cmp	r3, #4
    34da:	d005      	beq.n	34e8 <__aeabi_dmul+0x474>
    34dc:	0003      	movs	r3, r0
    34de:	1d18      	adds	r0, r3, #4
    34e0:	4298      	cmp	r0, r3
    34e2:	419b      	sbcs	r3, r3
    34e4:	425b      	negs	r3, r3
    34e6:	18e4      	adds	r4, r4, r3
    34e8:	0223      	lsls	r3, r4, #8
    34ea:	d521      	bpl.n	3530 <__aeabi_dmul+0x4bc>
    34ec:	2501      	movs	r5, #1
    34ee:	9b01      	ldr	r3, [sp, #4]
    34f0:	2401      	movs	r4, #1
    34f2:	401d      	ands	r5, r3
    34f4:	2300      	movs	r3, #0
    34f6:	2200      	movs	r2, #0
    34f8:	4699      	mov	r9, r3
    34fa:	e622      	b.n	3142 <__aeabi_dmul+0xce>
    34fc:	251f      	movs	r5, #31
    34fe:	0021      	movs	r1, r4
    3500:	426d      	negs	r5, r5
    3502:	1a28      	subs	r0, r5, r0
    3504:	40c1      	lsrs	r1, r0
    3506:	0008      	movs	r0, r1
    3508:	2a20      	cmp	r2, #32
    350a:	d01d      	beq.n	3548 <__aeabi_dmul+0x4d4>
    350c:	355f      	adds	r5, #95	; 0x5f
    350e:	1aaa      	subs	r2, r5, r2
    3510:	4094      	lsls	r4, r2
    3512:	4323      	orrs	r3, r4
    3514:	1e5c      	subs	r4, r3, #1
    3516:	41a3      	sbcs	r3, r4
    3518:	2507      	movs	r5, #7
    351a:	4303      	orrs	r3, r0
    351c:	401d      	ands	r5, r3
    351e:	2200      	movs	r2, #0
    3520:	2d00      	cmp	r5, #0
    3522:	d009      	beq.n	3538 <__aeabi_dmul+0x4c4>
    3524:	220f      	movs	r2, #15
    3526:	2400      	movs	r4, #0
    3528:	401a      	ands	r2, r3
    352a:	0018      	movs	r0, r3
    352c:	2a04      	cmp	r2, #4
    352e:	d1d6      	bne.n	34de <__aeabi_dmul+0x46a>
    3530:	0003      	movs	r3, r0
    3532:	0765      	lsls	r5, r4, #29
    3534:	0264      	lsls	r4, r4, #9
    3536:	0b22      	lsrs	r2, r4, #12
    3538:	08db      	lsrs	r3, r3, #3
    353a:	432b      	orrs	r3, r5
    353c:	2501      	movs	r5, #1
    353e:	4699      	mov	r9, r3
    3540:	9b01      	ldr	r3, [sp, #4]
    3542:	2400      	movs	r4, #0
    3544:	401d      	ands	r5, r3
    3546:	e5fc      	b.n	3142 <__aeabi_dmul+0xce>
    3548:	2400      	movs	r4, #0
    354a:	e7e2      	b.n	3512 <__aeabi_dmul+0x49e>
    354c:	2280      	movs	r2, #128	; 0x80
    354e:	2501      	movs	r5, #1
    3550:	0312      	lsls	r2, r2, #12
    3552:	4322      	orrs	r2, r4
    3554:	9901      	ldr	r1, [sp, #4]
    3556:	0312      	lsls	r2, r2, #12
    3558:	0b12      	lsrs	r2, r2, #12
    355a:	400d      	ands	r5, r1
    355c:	4699      	mov	r9, r3
    355e:	4c04      	ldr	r4, [pc, #16]	; (3570 <__aeabi_dmul+0x4fc>)
    3560:	e5ef      	b.n	3142 <__aeabi_dmul+0xce>
    3562:	46c0      	nop			; (mov r8, r8)
    3564:	000003ff 	.word	0x000003ff
    3568:	feffffff 	.word	0xfeffffff
    356c:	000007fe 	.word	0x000007fe
    3570:	000007ff 	.word	0x000007ff

00003574 <__aeabi_dsub>:
    3574:	b5f0      	push	{r4, r5, r6, r7, lr}
    3576:	4646      	mov	r6, r8
    3578:	46d6      	mov	lr, sl
    357a:	464f      	mov	r7, r9
    357c:	030c      	lsls	r4, r1, #12
    357e:	b5c0      	push	{r6, r7, lr}
    3580:	0fcd      	lsrs	r5, r1, #31
    3582:	004e      	lsls	r6, r1, #1
    3584:	0a61      	lsrs	r1, r4, #9
    3586:	0f44      	lsrs	r4, r0, #29
    3588:	430c      	orrs	r4, r1
    358a:	00c1      	lsls	r1, r0, #3
    358c:	0058      	lsls	r0, r3, #1
    358e:	0d40      	lsrs	r0, r0, #21
    3590:	4684      	mov	ip, r0
    3592:	468a      	mov	sl, r1
    3594:	000f      	movs	r7, r1
    3596:	0319      	lsls	r1, r3, #12
    3598:	0f50      	lsrs	r0, r2, #29
    359a:	0a49      	lsrs	r1, r1, #9
    359c:	4301      	orrs	r1, r0
    359e:	48c6      	ldr	r0, [pc, #792]	; (38b8 <__aeabi_dsub+0x344>)
    35a0:	0d76      	lsrs	r6, r6, #21
    35a2:	46a8      	mov	r8, r5
    35a4:	0fdb      	lsrs	r3, r3, #31
    35a6:	00d2      	lsls	r2, r2, #3
    35a8:	4584      	cmp	ip, r0
    35aa:	d100      	bne.n	35ae <__aeabi_dsub+0x3a>
    35ac:	e0d8      	b.n	3760 <__aeabi_dsub+0x1ec>
    35ae:	2001      	movs	r0, #1
    35b0:	4043      	eors	r3, r0
    35b2:	42ab      	cmp	r3, r5
    35b4:	d100      	bne.n	35b8 <__aeabi_dsub+0x44>
    35b6:	e0a6      	b.n	3706 <__aeabi_dsub+0x192>
    35b8:	4660      	mov	r0, ip
    35ba:	1a35      	subs	r5, r6, r0
    35bc:	2d00      	cmp	r5, #0
    35be:	dc00      	bgt.n	35c2 <__aeabi_dsub+0x4e>
    35c0:	e105      	b.n	37ce <__aeabi_dsub+0x25a>
    35c2:	2800      	cmp	r0, #0
    35c4:	d110      	bne.n	35e8 <__aeabi_dsub+0x74>
    35c6:	000b      	movs	r3, r1
    35c8:	4313      	orrs	r3, r2
    35ca:	d100      	bne.n	35ce <__aeabi_dsub+0x5a>
    35cc:	e0d7      	b.n	377e <__aeabi_dsub+0x20a>
    35ce:	1e6b      	subs	r3, r5, #1
    35d0:	2b00      	cmp	r3, #0
    35d2:	d000      	beq.n	35d6 <__aeabi_dsub+0x62>
    35d4:	e14b      	b.n	386e <__aeabi_dsub+0x2fa>
    35d6:	4653      	mov	r3, sl
    35d8:	1a9f      	subs	r7, r3, r2
    35da:	45ba      	cmp	sl, r7
    35dc:	4180      	sbcs	r0, r0
    35de:	1a64      	subs	r4, r4, r1
    35e0:	4240      	negs	r0, r0
    35e2:	1a24      	subs	r4, r4, r0
    35e4:	2601      	movs	r6, #1
    35e6:	e01e      	b.n	3626 <__aeabi_dsub+0xb2>
    35e8:	4bb3      	ldr	r3, [pc, #716]	; (38b8 <__aeabi_dsub+0x344>)
    35ea:	429e      	cmp	r6, r3
    35ec:	d048      	beq.n	3680 <__aeabi_dsub+0x10c>
    35ee:	2380      	movs	r3, #128	; 0x80
    35f0:	041b      	lsls	r3, r3, #16
    35f2:	4319      	orrs	r1, r3
    35f4:	2d38      	cmp	r5, #56	; 0x38
    35f6:	dd00      	ble.n	35fa <__aeabi_dsub+0x86>
    35f8:	e119      	b.n	382e <__aeabi_dsub+0x2ba>
    35fa:	2d1f      	cmp	r5, #31
    35fc:	dd00      	ble.n	3600 <__aeabi_dsub+0x8c>
    35fe:	e14c      	b.n	389a <__aeabi_dsub+0x326>
    3600:	2320      	movs	r3, #32
    3602:	000f      	movs	r7, r1
    3604:	1b5b      	subs	r3, r3, r5
    3606:	0010      	movs	r0, r2
    3608:	409a      	lsls	r2, r3
    360a:	409f      	lsls	r7, r3
    360c:	40e8      	lsrs	r0, r5
    360e:	1e53      	subs	r3, r2, #1
    3610:	419a      	sbcs	r2, r3
    3612:	40e9      	lsrs	r1, r5
    3614:	4307      	orrs	r7, r0
    3616:	4317      	orrs	r7, r2
    3618:	4653      	mov	r3, sl
    361a:	1bdf      	subs	r7, r3, r7
    361c:	1a61      	subs	r1, r4, r1
    361e:	45ba      	cmp	sl, r7
    3620:	41a4      	sbcs	r4, r4
    3622:	4264      	negs	r4, r4
    3624:	1b0c      	subs	r4, r1, r4
    3626:	0223      	lsls	r3, r4, #8
    3628:	d400      	bmi.n	362c <__aeabi_dsub+0xb8>
    362a:	e0c5      	b.n	37b8 <__aeabi_dsub+0x244>
    362c:	0264      	lsls	r4, r4, #9
    362e:	0a65      	lsrs	r5, r4, #9
    3630:	2d00      	cmp	r5, #0
    3632:	d100      	bne.n	3636 <__aeabi_dsub+0xc2>
    3634:	e0f6      	b.n	3824 <__aeabi_dsub+0x2b0>
    3636:	0028      	movs	r0, r5
    3638:	f000 fb1e 	bl	3c78 <__clzsi2>
    363c:	0003      	movs	r3, r0
    363e:	3b08      	subs	r3, #8
    3640:	2b1f      	cmp	r3, #31
    3642:	dd00      	ble.n	3646 <__aeabi_dsub+0xd2>
    3644:	e0e9      	b.n	381a <__aeabi_dsub+0x2a6>
    3646:	2220      	movs	r2, #32
    3648:	003c      	movs	r4, r7
    364a:	1ad2      	subs	r2, r2, r3
    364c:	409d      	lsls	r5, r3
    364e:	40d4      	lsrs	r4, r2
    3650:	409f      	lsls	r7, r3
    3652:	4325      	orrs	r5, r4
    3654:	429e      	cmp	r6, r3
    3656:	dd00      	ble.n	365a <__aeabi_dsub+0xe6>
    3658:	e0db      	b.n	3812 <__aeabi_dsub+0x29e>
    365a:	1b9e      	subs	r6, r3, r6
    365c:	1c73      	adds	r3, r6, #1
    365e:	2b1f      	cmp	r3, #31
    3660:	dd00      	ble.n	3664 <__aeabi_dsub+0xf0>
    3662:	e10a      	b.n	387a <__aeabi_dsub+0x306>
    3664:	2220      	movs	r2, #32
    3666:	0038      	movs	r0, r7
    3668:	1ad2      	subs	r2, r2, r3
    366a:	0029      	movs	r1, r5
    366c:	4097      	lsls	r7, r2
    366e:	002c      	movs	r4, r5
    3670:	4091      	lsls	r1, r2
    3672:	40d8      	lsrs	r0, r3
    3674:	1e7a      	subs	r2, r7, #1
    3676:	4197      	sbcs	r7, r2
    3678:	40dc      	lsrs	r4, r3
    367a:	2600      	movs	r6, #0
    367c:	4301      	orrs	r1, r0
    367e:	430f      	orrs	r7, r1
    3680:	077b      	lsls	r3, r7, #29
    3682:	d009      	beq.n	3698 <__aeabi_dsub+0x124>
    3684:	230f      	movs	r3, #15
    3686:	403b      	ands	r3, r7
    3688:	2b04      	cmp	r3, #4
    368a:	d005      	beq.n	3698 <__aeabi_dsub+0x124>
    368c:	1d3b      	adds	r3, r7, #4
    368e:	42bb      	cmp	r3, r7
    3690:	41bf      	sbcs	r7, r7
    3692:	427f      	negs	r7, r7
    3694:	19e4      	adds	r4, r4, r7
    3696:	001f      	movs	r7, r3
    3698:	0223      	lsls	r3, r4, #8
    369a:	d525      	bpl.n	36e8 <__aeabi_dsub+0x174>
    369c:	4b86      	ldr	r3, [pc, #536]	; (38b8 <__aeabi_dsub+0x344>)
    369e:	3601      	adds	r6, #1
    36a0:	429e      	cmp	r6, r3
    36a2:	d100      	bne.n	36a6 <__aeabi_dsub+0x132>
    36a4:	e0af      	b.n	3806 <__aeabi_dsub+0x292>
    36a6:	4b85      	ldr	r3, [pc, #532]	; (38bc <__aeabi_dsub+0x348>)
    36a8:	2501      	movs	r5, #1
    36aa:	401c      	ands	r4, r3
    36ac:	4643      	mov	r3, r8
    36ae:	0762      	lsls	r2, r4, #29
    36b0:	08ff      	lsrs	r7, r7, #3
    36b2:	0264      	lsls	r4, r4, #9
    36b4:	0576      	lsls	r6, r6, #21
    36b6:	4317      	orrs	r7, r2
    36b8:	0b24      	lsrs	r4, r4, #12
    36ba:	0d76      	lsrs	r6, r6, #21
    36bc:	401d      	ands	r5, r3
    36be:	2100      	movs	r1, #0
    36c0:	0324      	lsls	r4, r4, #12
    36c2:	0b23      	lsrs	r3, r4, #12
    36c4:	0d0c      	lsrs	r4, r1, #20
    36c6:	4a7e      	ldr	r2, [pc, #504]	; (38c0 <__aeabi_dsub+0x34c>)
    36c8:	0524      	lsls	r4, r4, #20
    36ca:	431c      	orrs	r4, r3
    36cc:	4014      	ands	r4, r2
    36ce:	0533      	lsls	r3, r6, #20
    36d0:	4323      	orrs	r3, r4
    36d2:	005b      	lsls	r3, r3, #1
    36d4:	07ed      	lsls	r5, r5, #31
    36d6:	085b      	lsrs	r3, r3, #1
    36d8:	432b      	orrs	r3, r5
    36da:	0038      	movs	r0, r7
    36dc:	0019      	movs	r1, r3
    36de:	bc1c      	pop	{r2, r3, r4}
    36e0:	4690      	mov	r8, r2
    36e2:	4699      	mov	r9, r3
    36e4:	46a2      	mov	sl, r4
    36e6:	bdf0      	pop	{r4, r5, r6, r7, pc}
    36e8:	2501      	movs	r5, #1
    36ea:	4643      	mov	r3, r8
    36ec:	0762      	lsls	r2, r4, #29
    36ee:	08ff      	lsrs	r7, r7, #3
    36f0:	4317      	orrs	r7, r2
    36f2:	08e4      	lsrs	r4, r4, #3
    36f4:	401d      	ands	r5, r3
    36f6:	4b70      	ldr	r3, [pc, #448]	; (38b8 <__aeabi_dsub+0x344>)
    36f8:	429e      	cmp	r6, r3
    36fa:	d036      	beq.n	376a <__aeabi_dsub+0x1f6>
    36fc:	0324      	lsls	r4, r4, #12
    36fe:	0576      	lsls	r6, r6, #21
    3700:	0b24      	lsrs	r4, r4, #12
    3702:	0d76      	lsrs	r6, r6, #21
    3704:	e7db      	b.n	36be <__aeabi_dsub+0x14a>
    3706:	4663      	mov	r3, ip
    3708:	1af3      	subs	r3, r6, r3
    370a:	2b00      	cmp	r3, #0
    370c:	dc00      	bgt.n	3710 <__aeabi_dsub+0x19c>
    370e:	e094      	b.n	383a <__aeabi_dsub+0x2c6>
    3710:	4660      	mov	r0, ip
    3712:	2800      	cmp	r0, #0
    3714:	d035      	beq.n	3782 <__aeabi_dsub+0x20e>
    3716:	4868      	ldr	r0, [pc, #416]	; (38b8 <__aeabi_dsub+0x344>)
    3718:	4286      	cmp	r6, r0
    371a:	d0b1      	beq.n	3680 <__aeabi_dsub+0x10c>
    371c:	2780      	movs	r7, #128	; 0x80
    371e:	043f      	lsls	r7, r7, #16
    3720:	4339      	orrs	r1, r7
    3722:	2b38      	cmp	r3, #56	; 0x38
    3724:	dc00      	bgt.n	3728 <__aeabi_dsub+0x1b4>
    3726:	e0fd      	b.n	3924 <__aeabi_dsub+0x3b0>
    3728:	430a      	orrs	r2, r1
    372a:	0017      	movs	r7, r2
    372c:	2100      	movs	r1, #0
    372e:	1e7a      	subs	r2, r7, #1
    3730:	4197      	sbcs	r7, r2
    3732:	4457      	add	r7, sl
    3734:	4557      	cmp	r7, sl
    3736:	4180      	sbcs	r0, r0
    3738:	1909      	adds	r1, r1, r4
    373a:	4244      	negs	r4, r0
    373c:	190c      	adds	r4, r1, r4
    373e:	0223      	lsls	r3, r4, #8
    3740:	d53a      	bpl.n	37b8 <__aeabi_dsub+0x244>
    3742:	4b5d      	ldr	r3, [pc, #372]	; (38b8 <__aeabi_dsub+0x344>)
    3744:	3601      	adds	r6, #1
    3746:	429e      	cmp	r6, r3
    3748:	d100      	bne.n	374c <__aeabi_dsub+0x1d8>
    374a:	e14b      	b.n	39e4 <__aeabi_dsub+0x470>
    374c:	2201      	movs	r2, #1
    374e:	4b5b      	ldr	r3, [pc, #364]	; (38bc <__aeabi_dsub+0x348>)
    3750:	401c      	ands	r4, r3
    3752:	087b      	lsrs	r3, r7, #1
    3754:	4017      	ands	r7, r2
    3756:	431f      	orrs	r7, r3
    3758:	07e2      	lsls	r2, r4, #31
    375a:	4317      	orrs	r7, r2
    375c:	0864      	lsrs	r4, r4, #1
    375e:	e78f      	b.n	3680 <__aeabi_dsub+0x10c>
    3760:	0008      	movs	r0, r1
    3762:	4310      	orrs	r0, r2
    3764:	d000      	beq.n	3768 <__aeabi_dsub+0x1f4>
    3766:	e724      	b.n	35b2 <__aeabi_dsub+0x3e>
    3768:	e721      	b.n	35ae <__aeabi_dsub+0x3a>
    376a:	0023      	movs	r3, r4
    376c:	433b      	orrs	r3, r7
    376e:	d100      	bne.n	3772 <__aeabi_dsub+0x1fe>
    3770:	e1b9      	b.n	3ae6 <__aeabi_dsub+0x572>
    3772:	2280      	movs	r2, #128	; 0x80
    3774:	0312      	lsls	r2, r2, #12
    3776:	4314      	orrs	r4, r2
    3778:	0324      	lsls	r4, r4, #12
    377a:	0b24      	lsrs	r4, r4, #12
    377c:	e79f      	b.n	36be <__aeabi_dsub+0x14a>
    377e:	002e      	movs	r6, r5
    3780:	e77e      	b.n	3680 <__aeabi_dsub+0x10c>
    3782:	0008      	movs	r0, r1
    3784:	4310      	orrs	r0, r2
    3786:	d100      	bne.n	378a <__aeabi_dsub+0x216>
    3788:	e0ca      	b.n	3920 <__aeabi_dsub+0x3ac>
    378a:	1e58      	subs	r0, r3, #1
    378c:	4684      	mov	ip, r0
    378e:	2800      	cmp	r0, #0
    3790:	d000      	beq.n	3794 <__aeabi_dsub+0x220>
    3792:	e0e7      	b.n	3964 <__aeabi_dsub+0x3f0>
    3794:	4452      	add	r2, sl
    3796:	4552      	cmp	r2, sl
    3798:	4180      	sbcs	r0, r0
    379a:	1864      	adds	r4, r4, r1
    379c:	4240      	negs	r0, r0
    379e:	1824      	adds	r4, r4, r0
    37a0:	0017      	movs	r7, r2
    37a2:	2601      	movs	r6, #1
    37a4:	0223      	lsls	r3, r4, #8
    37a6:	d507      	bpl.n	37b8 <__aeabi_dsub+0x244>
    37a8:	2602      	movs	r6, #2
    37aa:	e7cf      	b.n	374c <__aeabi_dsub+0x1d8>
    37ac:	4664      	mov	r4, ip
    37ae:	432c      	orrs	r4, r5
    37b0:	d100      	bne.n	37b4 <__aeabi_dsub+0x240>
    37b2:	e1b3      	b.n	3b1c <__aeabi_dsub+0x5a8>
    37b4:	002c      	movs	r4, r5
    37b6:	4667      	mov	r7, ip
    37b8:	077b      	lsls	r3, r7, #29
    37ba:	d000      	beq.n	37be <__aeabi_dsub+0x24a>
    37bc:	e762      	b.n	3684 <__aeabi_dsub+0x110>
    37be:	0763      	lsls	r3, r4, #29
    37c0:	08ff      	lsrs	r7, r7, #3
    37c2:	431f      	orrs	r7, r3
    37c4:	2501      	movs	r5, #1
    37c6:	4643      	mov	r3, r8
    37c8:	08e4      	lsrs	r4, r4, #3
    37ca:	401d      	ands	r5, r3
    37cc:	e793      	b.n	36f6 <__aeabi_dsub+0x182>
    37ce:	2d00      	cmp	r5, #0
    37d0:	d178      	bne.n	38c4 <__aeabi_dsub+0x350>
    37d2:	1c75      	adds	r5, r6, #1
    37d4:	056d      	lsls	r5, r5, #21
    37d6:	0d6d      	lsrs	r5, r5, #21
    37d8:	2d01      	cmp	r5, #1
    37da:	dc00      	bgt.n	37de <__aeabi_dsub+0x26a>
    37dc:	e0f2      	b.n	39c4 <__aeabi_dsub+0x450>
    37de:	4650      	mov	r0, sl
    37e0:	1a80      	subs	r0, r0, r2
    37e2:	4582      	cmp	sl, r0
    37e4:	41bf      	sbcs	r7, r7
    37e6:	1a65      	subs	r5, r4, r1
    37e8:	427f      	negs	r7, r7
    37ea:	1bed      	subs	r5, r5, r7
    37ec:	4684      	mov	ip, r0
    37ee:	0228      	lsls	r0, r5, #8
    37f0:	d400      	bmi.n	37f4 <__aeabi_dsub+0x280>
    37f2:	e08c      	b.n	390e <__aeabi_dsub+0x39a>
    37f4:	4650      	mov	r0, sl
    37f6:	1a17      	subs	r7, r2, r0
    37f8:	42ba      	cmp	r2, r7
    37fa:	4192      	sbcs	r2, r2
    37fc:	1b0c      	subs	r4, r1, r4
    37fe:	4255      	negs	r5, r2
    3800:	1b65      	subs	r5, r4, r5
    3802:	4698      	mov	r8, r3
    3804:	e714      	b.n	3630 <__aeabi_dsub+0xbc>
    3806:	2501      	movs	r5, #1
    3808:	4643      	mov	r3, r8
    380a:	2400      	movs	r4, #0
    380c:	401d      	ands	r5, r3
    380e:	2700      	movs	r7, #0
    3810:	e755      	b.n	36be <__aeabi_dsub+0x14a>
    3812:	4c2a      	ldr	r4, [pc, #168]	; (38bc <__aeabi_dsub+0x348>)
    3814:	1af6      	subs	r6, r6, r3
    3816:	402c      	ands	r4, r5
    3818:	e732      	b.n	3680 <__aeabi_dsub+0x10c>
    381a:	003d      	movs	r5, r7
    381c:	3828      	subs	r0, #40	; 0x28
    381e:	4085      	lsls	r5, r0
    3820:	2700      	movs	r7, #0
    3822:	e717      	b.n	3654 <__aeabi_dsub+0xe0>
    3824:	0038      	movs	r0, r7
    3826:	f000 fa27 	bl	3c78 <__clzsi2>
    382a:	3020      	adds	r0, #32
    382c:	e706      	b.n	363c <__aeabi_dsub+0xc8>
    382e:	430a      	orrs	r2, r1
    3830:	0017      	movs	r7, r2
    3832:	2100      	movs	r1, #0
    3834:	1e7a      	subs	r2, r7, #1
    3836:	4197      	sbcs	r7, r2
    3838:	e6ee      	b.n	3618 <__aeabi_dsub+0xa4>
    383a:	2b00      	cmp	r3, #0
    383c:	d000      	beq.n	3840 <__aeabi_dsub+0x2cc>
    383e:	e0e5      	b.n	3a0c <__aeabi_dsub+0x498>
    3840:	1c73      	adds	r3, r6, #1
    3842:	469c      	mov	ip, r3
    3844:	055b      	lsls	r3, r3, #21
    3846:	0d5b      	lsrs	r3, r3, #21
    3848:	2b01      	cmp	r3, #1
    384a:	dc00      	bgt.n	384e <__aeabi_dsub+0x2da>
    384c:	e09f      	b.n	398e <__aeabi_dsub+0x41a>
    384e:	4b1a      	ldr	r3, [pc, #104]	; (38b8 <__aeabi_dsub+0x344>)
    3850:	459c      	cmp	ip, r3
    3852:	d100      	bne.n	3856 <__aeabi_dsub+0x2e2>
    3854:	e0c5      	b.n	39e2 <__aeabi_dsub+0x46e>
    3856:	4452      	add	r2, sl
    3858:	4552      	cmp	r2, sl
    385a:	4180      	sbcs	r0, r0
    385c:	1864      	adds	r4, r4, r1
    385e:	4240      	negs	r0, r0
    3860:	1824      	adds	r4, r4, r0
    3862:	07e7      	lsls	r7, r4, #31
    3864:	0852      	lsrs	r2, r2, #1
    3866:	4317      	orrs	r7, r2
    3868:	0864      	lsrs	r4, r4, #1
    386a:	4666      	mov	r6, ip
    386c:	e708      	b.n	3680 <__aeabi_dsub+0x10c>
    386e:	4812      	ldr	r0, [pc, #72]	; (38b8 <__aeabi_dsub+0x344>)
    3870:	4285      	cmp	r5, r0
    3872:	d100      	bne.n	3876 <__aeabi_dsub+0x302>
    3874:	e085      	b.n	3982 <__aeabi_dsub+0x40e>
    3876:	001d      	movs	r5, r3
    3878:	e6bc      	b.n	35f4 <__aeabi_dsub+0x80>
    387a:	0029      	movs	r1, r5
    387c:	3e1f      	subs	r6, #31
    387e:	40f1      	lsrs	r1, r6
    3880:	2b20      	cmp	r3, #32
    3882:	d100      	bne.n	3886 <__aeabi_dsub+0x312>
    3884:	e07f      	b.n	3986 <__aeabi_dsub+0x412>
    3886:	2240      	movs	r2, #64	; 0x40
    3888:	1ad3      	subs	r3, r2, r3
    388a:	409d      	lsls	r5, r3
    388c:	432f      	orrs	r7, r5
    388e:	1e7d      	subs	r5, r7, #1
    3890:	41af      	sbcs	r7, r5
    3892:	2400      	movs	r4, #0
    3894:	430f      	orrs	r7, r1
    3896:	2600      	movs	r6, #0
    3898:	e78e      	b.n	37b8 <__aeabi_dsub+0x244>
    389a:	002b      	movs	r3, r5
    389c:	000f      	movs	r7, r1
    389e:	3b20      	subs	r3, #32
    38a0:	40df      	lsrs	r7, r3
    38a2:	2d20      	cmp	r5, #32
    38a4:	d071      	beq.n	398a <__aeabi_dsub+0x416>
    38a6:	2340      	movs	r3, #64	; 0x40
    38a8:	1b5d      	subs	r5, r3, r5
    38aa:	40a9      	lsls	r1, r5
    38ac:	430a      	orrs	r2, r1
    38ae:	1e51      	subs	r1, r2, #1
    38b0:	418a      	sbcs	r2, r1
    38b2:	2100      	movs	r1, #0
    38b4:	4317      	orrs	r7, r2
    38b6:	e6af      	b.n	3618 <__aeabi_dsub+0xa4>
    38b8:	000007ff 	.word	0x000007ff
    38bc:	ff7fffff 	.word	0xff7fffff
    38c0:	800fffff 	.word	0x800fffff
    38c4:	2e00      	cmp	r6, #0
    38c6:	d03e      	beq.n	3946 <__aeabi_dsub+0x3d2>
    38c8:	4eb3      	ldr	r6, [pc, #716]	; (3b98 <__aeabi_dsub+0x624>)
    38ca:	45b4      	cmp	ip, r6
    38cc:	d045      	beq.n	395a <__aeabi_dsub+0x3e6>
    38ce:	2680      	movs	r6, #128	; 0x80
    38d0:	0436      	lsls	r6, r6, #16
    38d2:	426d      	negs	r5, r5
    38d4:	4334      	orrs	r4, r6
    38d6:	2d38      	cmp	r5, #56	; 0x38
    38d8:	dd00      	ble.n	38dc <__aeabi_dsub+0x368>
    38da:	e0a8      	b.n	3a2e <__aeabi_dsub+0x4ba>
    38dc:	2d1f      	cmp	r5, #31
    38de:	dd00      	ble.n	38e2 <__aeabi_dsub+0x36e>
    38e0:	e11f      	b.n	3b22 <__aeabi_dsub+0x5ae>
    38e2:	2620      	movs	r6, #32
    38e4:	0027      	movs	r7, r4
    38e6:	4650      	mov	r0, sl
    38e8:	1b76      	subs	r6, r6, r5
    38ea:	40b7      	lsls	r7, r6
    38ec:	40e8      	lsrs	r0, r5
    38ee:	4307      	orrs	r7, r0
    38f0:	4650      	mov	r0, sl
    38f2:	40b0      	lsls	r0, r6
    38f4:	1e46      	subs	r6, r0, #1
    38f6:	41b0      	sbcs	r0, r6
    38f8:	40ec      	lsrs	r4, r5
    38fa:	4338      	orrs	r0, r7
    38fc:	1a17      	subs	r7, r2, r0
    38fe:	42ba      	cmp	r2, r7
    3900:	4192      	sbcs	r2, r2
    3902:	1b0c      	subs	r4, r1, r4
    3904:	4252      	negs	r2, r2
    3906:	1aa4      	subs	r4, r4, r2
    3908:	4666      	mov	r6, ip
    390a:	4698      	mov	r8, r3
    390c:	e68b      	b.n	3626 <__aeabi_dsub+0xb2>
    390e:	4664      	mov	r4, ip
    3910:	4667      	mov	r7, ip
    3912:	432c      	orrs	r4, r5
    3914:	d000      	beq.n	3918 <__aeabi_dsub+0x3a4>
    3916:	e68b      	b.n	3630 <__aeabi_dsub+0xbc>
    3918:	2500      	movs	r5, #0
    391a:	2600      	movs	r6, #0
    391c:	2700      	movs	r7, #0
    391e:	e6ea      	b.n	36f6 <__aeabi_dsub+0x182>
    3920:	001e      	movs	r6, r3
    3922:	e6ad      	b.n	3680 <__aeabi_dsub+0x10c>
    3924:	2b1f      	cmp	r3, #31
    3926:	dc60      	bgt.n	39ea <__aeabi_dsub+0x476>
    3928:	2720      	movs	r7, #32
    392a:	1af8      	subs	r0, r7, r3
    392c:	000f      	movs	r7, r1
    392e:	4684      	mov	ip, r0
    3930:	4087      	lsls	r7, r0
    3932:	0010      	movs	r0, r2
    3934:	40d8      	lsrs	r0, r3
    3936:	4307      	orrs	r7, r0
    3938:	4660      	mov	r0, ip
    393a:	4082      	lsls	r2, r0
    393c:	1e50      	subs	r0, r2, #1
    393e:	4182      	sbcs	r2, r0
    3940:	40d9      	lsrs	r1, r3
    3942:	4317      	orrs	r7, r2
    3944:	e6f5      	b.n	3732 <__aeabi_dsub+0x1be>
    3946:	0026      	movs	r6, r4
    3948:	4650      	mov	r0, sl
    394a:	4306      	orrs	r6, r0
    394c:	d005      	beq.n	395a <__aeabi_dsub+0x3e6>
    394e:	43ed      	mvns	r5, r5
    3950:	2d00      	cmp	r5, #0
    3952:	d0d3      	beq.n	38fc <__aeabi_dsub+0x388>
    3954:	4e90      	ldr	r6, [pc, #576]	; (3b98 <__aeabi_dsub+0x624>)
    3956:	45b4      	cmp	ip, r6
    3958:	d1bd      	bne.n	38d6 <__aeabi_dsub+0x362>
    395a:	000c      	movs	r4, r1
    395c:	0017      	movs	r7, r2
    395e:	4666      	mov	r6, ip
    3960:	4698      	mov	r8, r3
    3962:	e68d      	b.n	3680 <__aeabi_dsub+0x10c>
    3964:	488c      	ldr	r0, [pc, #560]	; (3b98 <__aeabi_dsub+0x624>)
    3966:	4283      	cmp	r3, r0
    3968:	d00b      	beq.n	3982 <__aeabi_dsub+0x40e>
    396a:	4663      	mov	r3, ip
    396c:	e6d9      	b.n	3722 <__aeabi_dsub+0x1ae>
    396e:	2d00      	cmp	r5, #0
    3970:	d000      	beq.n	3974 <__aeabi_dsub+0x400>
    3972:	e096      	b.n	3aa2 <__aeabi_dsub+0x52e>
    3974:	0008      	movs	r0, r1
    3976:	4310      	orrs	r0, r2
    3978:	d100      	bne.n	397c <__aeabi_dsub+0x408>
    397a:	e0e2      	b.n	3b42 <__aeabi_dsub+0x5ce>
    397c:	000c      	movs	r4, r1
    397e:	0017      	movs	r7, r2
    3980:	4698      	mov	r8, r3
    3982:	4e85      	ldr	r6, [pc, #532]	; (3b98 <__aeabi_dsub+0x624>)
    3984:	e67c      	b.n	3680 <__aeabi_dsub+0x10c>
    3986:	2500      	movs	r5, #0
    3988:	e780      	b.n	388c <__aeabi_dsub+0x318>
    398a:	2100      	movs	r1, #0
    398c:	e78e      	b.n	38ac <__aeabi_dsub+0x338>
    398e:	0023      	movs	r3, r4
    3990:	4650      	mov	r0, sl
    3992:	4303      	orrs	r3, r0
    3994:	2e00      	cmp	r6, #0
    3996:	d000      	beq.n	399a <__aeabi_dsub+0x426>
    3998:	e0a8      	b.n	3aec <__aeabi_dsub+0x578>
    399a:	2b00      	cmp	r3, #0
    399c:	d100      	bne.n	39a0 <__aeabi_dsub+0x42c>
    399e:	e0de      	b.n	3b5e <__aeabi_dsub+0x5ea>
    39a0:	000b      	movs	r3, r1
    39a2:	4313      	orrs	r3, r2
    39a4:	d100      	bne.n	39a8 <__aeabi_dsub+0x434>
    39a6:	e66b      	b.n	3680 <__aeabi_dsub+0x10c>
    39a8:	4452      	add	r2, sl
    39aa:	4552      	cmp	r2, sl
    39ac:	4180      	sbcs	r0, r0
    39ae:	1864      	adds	r4, r4, r1
    39b0:	4240      	negs	r0, r0
    39b2:	1824      	adds	r4, r4, r0
    39b4:	0017      	movs	r7, r2
    39b6:	0223      	lsls	r3, r4, #8
    39b8:	d400      	bmi.n	39bc <__aeabi_dsub+0x448>
    39ba:	e6fd      	b.n	37b8 <__aeabi_dsub+0x244>
    39bc:	4b77      	ldr	r3, [pc, #476]	; (3b9c <__aeabi_dsub+0x628>)
    39be:	4666      	mov	r6, ip
    39c0:	401c      	ands	r4, r3
    39c2:	e65d      	b.n	3680 <__aeabi_dsub+0x10c>
    39c4:	0025      	movs	r5, r4
    39c6:	4650      	mov	r0, sl
    39c8:	4305      	orrs	r5, r0
    39ca:	2e00      	cmp	r6, #0
    39cc:	d1cf      	bne.n	396e <__aeabi_dsub+0x3fa>
    39ce:	2d00      	cmp	r5, #0
    39d0:	d14f      	bne.n	3a72 <__aeabi_dsub+0x4fe>
    39d2:	000c      	movs	r4, r1
    39d4:	4314      	orrs	r4, r2
    39d6:	d100      	bne.n	39da <__aeabi_dsub+0x466>
    39d8:	e0a0      	b.n	3b1c <__aeabi_dsub+0x5a8>
    39da:	000c      	movs	r4, r1
    39dc:	0017      	movs	r7, r2
    39de:	4698      	mov	r8, r3
    39e0:	e64e      	b.n	3680 <__aeabi_dsub+0x10c>
    39e2:	4666      	mov	r6, ip
    39e4:	2400      	movs	r4, #0
    39e6:	2700      	movs	r7, #0
    39e8:	e685      	b.n	36f6 <__aeabi_dsub+0x182>
    39ea:	001f      	movs	r7, r3
    39ec:	0008      	movs	r0, r1
    39ee:	3f20      	subs	r7, #32
    39f0:	40f8      	lsrs	r0, r7
    39f2:	0007      	movs	r7, r0
    39f4:	2b20      	cmp	r3, #32
    39f6:	d100      	bne.n	39fa <__aeabi_dsub+0x486>
    39f8:	e08e      	b.n	3b18 <__aeabi_dsub+0x5a4>
    39fa:	2040      	movs	r0, #64	; 0x40
    39fc:	1ac3      	subs	r3, r0, r3
    39fe:	4099      	lsls	r1, r3
    3a00:	430a      	orrs	r2, r1
    3a02:	1e51      	subs	r1, r2, #1
    3a04:	418a      	sbcs	r2, r1
    3a06:	2100      	movs	r1, #0
    3a08:	4317      	orrs	r7, r2
    3a0a:	e692      	b.n	3732 <__aeabi_dsub+0x1be>
    3a0c:	2e00      	cmp	r6, #0
    3a0e:	d114      	bne.n	3a3a <__aeabi_dsub+0x4c6>
    3a10:	0026      	movs	r6, r4
    3a12:	4650      	mov	r0, sl
    3a14:	4306      	orrs	r6, r0
    3a16:	d062      	beq.n	3ade <__aeabi_dsub+0x56a>
    3a18:	43db      	mvns	r3, r3
    3a1a:	2b00      	cmp	r3, #0
    3a1c:	d15c      	bne.n	3ad8 <__aeabi_dsub+0x564>
    3a1e:	1887      	adds	r7, r0, r2
    3a20:	4297      	cmp	r7, r2
    3a22:	4192      	sbcs	r2, r2
    3a24:	1864      	adds	r4, r4, r1
    3a26:	4252      	negs	r2, r2
    3a28:	18a4      	adds	r4, r4, r2
    3a2a:	4666      	mov	r6, ip
    3a2c:	e687      	b.n	373e <__aeabi_dsub+0x1ca>
    3a2e:	4650      	mov	r0, sl
    3a30:	4320      	orrs	r0, r4
    3a32:	1e44      	subs	r4, r0, #1
    3a34:	41a0      	sbcs	r0, r4
    3a36:	2400      	movs	r4, #0
    3a38:	e760      	b.n	38fc <__aeabi_dsub+0x388>
    3a3a:	4e57      	ldr	r6, [pc, #348]	; (3b98 <__aeabi_dsub+0x624>)
    3a3c:	45b4      	cmp	ip, r6
    3a3e:	d04e      	beq.n	3ade <__aeabi_dsub+0x56a>
    3a40:	2680      	movs	r6, #128	; 0x80
    3a42:	0436      	lsls	r6, r6, #16
    3a44:	425b      	negs	r3, r3
    3a46:	4334      	orrs	r4, r6
    3a48:	2b38      	cmp	r3, #56	; 0x38
    3a4a:	dd00      	ble.n	3a4e <__aeabi_dsub+0x4da>
    3a4c:	e07f      	b.n	3b4e <__aeabi_dsub+0x5da>
    3a4e:	2b1f      	cmp	r3, #31
    3a50:	dd00      	ble.n	3a54 <__aeabi_dsub+0x4e0>
    3a52:	e08b      	b.n	3b6c <__aeabi_dsub+0x5f8>
    3a54:	2620      	movs	r6, #32
    3a56:	0027      	movs	r7, r4
    3a58:	4650      	mov	r0, sl
    3a5a:	1af6      	subs	r6, r6, r3
    3a5c:	40b7      	lsls	r7, r6
    3a5e:	40d8      	lsrs	r0, r3
    3a60:	4307      	orrs	r7, r0
    3a62:	4650      	mov	r0, sl
    3a64:	40b0      	lsls	r0, r6
    3a66:	1e46      	subs	r6, r0, #1
    3a68:	41b0      	sbcs	r0, r6
    3a6a:	4307      	orrs	r7, r0
    3a6c:	40dc      	lsrs	r4, r3
    3a6e:	18bf      	adds	r7, r7, r2
    3a70:	e7d6      	b.n	3a20 <__aeabi_dsub+0x4ac>
    3a72:	000d      	movs	r5, r1
    3a74:	4315      	orrs	r5, r2
    3a76:	d100      	bne.n	3a7a <__aeabi_dsub+0x506>
    3a78:	e602      	b.n	3680 <__aeabi_dsub+0x10c>
    3a7a:	4650      	mov	r0, sl
    3a7c:	1a80      	subs	r0, r0, r2
    3a7e:	4582      	cmp	sl, r0
    3a80:	41bf      	sbcs	r7, r7
    3a82:	1a65      	subs	r5, r4, r1
    3a84:	427f      	negs	r7, r7
    3a86:	1bed      	subs	r5, r5, r7
    3a88:	4684      	mov	ip, r0
    3a8a:	0228      	lsls	r0, r5, #8
    3a8c:	d400      	bmi.n	3a90 <__aeabi_dsub+0x51c>
    3a8e:	e68d      	b.n	37ac <__aeabi_dsub+0x238>
    3a90:	4650      	mov	r0, sl
    3a92:	1a17      	subs	r7, r2, r0
    3a94:	42ba      	cmp	r2, r7
    3a96:	4192      	sbcs	r2, r2
    3a98:	1b0c      	subs	r4, r1, r4
    3a9a:	4252      	negs	r2, r2
    3a9c:	1aa4      	subs	r4, r4, r2
    3a9e:	4698      	mov	r8, r3
    3aa0:	e5ee      	b.n	3680 <__aeabi_dsub+0x10c>
    3aa2:	000d      	movs	r5, r1
    3aa4:	4315      	orrs	r5, r2
    3aa6:	d100      	bne.n	3aaa <__aeabi_dsub+0x536>
    3aa8:	e76b      	b.n	3982 <__aeabi_dsub+0x40e>
    3aaa:	4650      	mov	r0, sl
    3aac:	0767      	lsls	r7, r4, #29
    3aae:	08c0      	lsrs	r0, r0, #3
    3ab0:	4307      	orrs	r7, r0
    3ab2:	2080      	movs	r0, #128	; 0x80
    3ab4:	08e4      	lsrs	r4, r4, #3
    3ab6:	0300      	lsls	r0, r0, #12
    3ab8:	4204      	tst	r4, r0
    3aba:	d007      	beq.n	3acc <__aeabi_dsub+0x558>
    3abc:	08cd      	lsrs	r5, r1, #3
    3abe:	4205      	tst	r5, r0
    3ac0:	d104      	bne.n	3acc <__aeabi_dsub+0x558>
    3ac2:	002c      	movs	r4, r5
    3ac4:	4698      	mov	r8, r3
    3ac6:	08d7      	lsrs	r7, r2, #3
    3ac8:	0749      	lsls	r1, r1, #29
    3aca:	430f      	orrs	r7, r1
    3acc:	0f7b      	lsrs	r3, r7, #29
    3ace:	00e4      	lsls	r4, r4, #3
    3ad0:	431c      	orrs	r4, r3
    3ad2:	00ff      	lsls	r7, r7, #3
    3ad4:	4e30      	ldr	r6, [pc, #192]	; (3b98 <__aeabi_dsub+0x624>)
    3ad6:	e5d3      	b.n	3680 <__aeabi_dsub+0x10c>
    3ad8:	4e2f      	ldr	r6, [pc, #188]	; (3b98 <__aeabi_dsub+0x624>)
    3ada:	45b4      	cmp	ip, r6
    3adc:	d1b4      	bne.n	3a48 <__aeabi_dsub+0x4d4>
    3ade:	000c      	movs	r4, r1
    3ae0:	0017      	movs	r7, r2
    3ae2:	4666      	mov	r6, ip
    3ae4:	e5cc      	b.n	3680 <__aeabi_dsub+0x10c>
    3ae6:	2700      	movs	r7, #0
    3ae8:	2400      	movs	r4, #0
    3aea:	e5e8      	b.n	36be <__aeabi_dsub+0x14a>
    3aec:	2b00      	cmp	r3, #0
    3aee:	d039      	beq.n	3b64 <__aeabi_dsub+0x5f0>
    3af0:	000b      	movs	r3, r1
    3af2:	4313      	orrs	r3, r2
    3af4:	d100      	bne.n	3af8 <__aeabi_dsub+0x584>
    3af6:	e744      	b.n	3982 <__aeabi_dsub+0x40e>
    3af8:	08c0      	lsrs	r0, r0, #3
    3afa:	0767      	lsls	r7, r4, #29
    3afc:	4307      	orrs	r7, r0
    3afe:	2080      	movs	r0, #128	; 0x80
    3b00:	08e4      	lsrs	r4, r4, #3
    3b02:	0300      	lsls	r0, r0, #12
    3b04:	4204      	tst	r4, r0
    3b06:	d0e1      	beq.n	3acc <__aeabi_dsub+0x558>
    3b08:	08cb      	lsrs	r3, r1, #3
    3b0a:	4203      	tst	r3, r0
    3b0c:	d1de      	bne.n	3acc <__aeabi_dsub+0x558>
    3b0e:	08d7      	lsrs	r7, r2, #3
    3b10:	0749      	lsls	r1, r1, #29
    3b12:	430f      	orrs	r7, r1
    3b14:	001c      	movs	r4, r3
    3b16:	e7d9      	b.n	3acc <__aeabi_dsub+0x558>
    3b18:	2100      	movs	r1, #0
    3b1a:	e771      	b.n	3a00 <__aeabi_dsub+0x48c>
    3b1c:	2500      	movs	r5, #0
    3b1e:	2700      	movs	r7, #0
    3b20:	e5e9      	b.n	36f6 <__aeabi_dsub+0x182>
    3b22:	002e      	movs	r6, r5
    3b24:	0027      	movs	r7, r4
    3b26:	3e20      	subs	r6, #32
    3b28:	40f7      	lsrs	r7, r6
    3b2a:	2d20      	cmp	r5, #32
    3b2c:	d02f      	beq.n	3b8e <__aeabi_dsub+0x61a>
    3b2e:	2640      	movs	r6, #64	; 0x40
    3b30:	1b75      	subs	r5, r6, r5
    3b32:	40ac      	lsls	r4, r5
    3b34:	4650      	mov	r0, sl
    3b36:	4320      	orrs	r0, r4
    3b38:	1e44      	subs	r4, r0, #1
    3b3a:	41a0      	sbcs	r0, r4
    3b3c:	2400      	movs	r4, #0
    3b3e:	4338      	orrs	r0, r7
    3b40:	e6dc      	b.n	38fc <__aeabi_dsub+0x388>
    3b42:	2480      	movs	r4, #128	; 0x80
    3b44:	2500      	movs	r5, #0
    3b46:	0324      	lsls	r4, r4, #12
    3b48:	4e13      	ldr	r6, [pc, #76]	; (3b98 <__aeabi_dsub+0x624>)
    3b4a:	2700      	movs	r7, #0
    3b4c:	e5d3      	b.n	36f6 <__aeabi_dsub+0x182>
    3b4e:	4650      	mov	r0, sl
    3b50:	4320      	orrs	r0, r4
    3b52:	0007      	movs	r7, r0
    3b54:	1e78      	subs	r0, r7, #1
    3b56:	4187      	sbcs	r7, r0
    3b58:	2400      	movs	r4, #0
    3b5a:	18bf      	adds	r7, r7, r2
    3b5c:	e760      	b.n	3a20 <__aeabi_dsub+0x4ac>
    3b5e:	000c      	movs	r4, r1
    3b60:	0017      	movs	r7, r2
    3b62:	e58d      	b.n	3680 <__aeabi_dsub+0x10c>
    3b64:	000c      	movs	r4, r1
    3b66:	0017      	movs	r7, r2
    3b68:	4e0b      	ldr	r6, [pc, #44]	; (3b98 <__aeabi_dsub+0x624>)
    3b6a:	e589      	b.n	3680 <__aeabi_dsub+0x10c>
    3b6c:	001e      	movs	r6, r3
    3b6e:	0027      	movs	r7, r4
    3b70:	3e20      	subs	r6, #32
    3b72:	40f7      	lsrs	r7, r6
    3b74:	2b20      	cmp	r3, #32
    3b76:	d00c      	beq.n	3b92 <__aeabi_dsub+0x61e>
    3b78:	2640      	movs	r6, #64	; 0x40
    3b7a:	1af3      	subs	r3, r6, r3
    3b7c:	409c      	lsls	r4, r3
    3b7e:	4650      	mov	r0, sl
    3b80:	4320      	orrs	r0, r4
    3b82:	1e44      	subs	r4, r0, #1
    3b84:	41a0      	sbcs	r0, r4
    3b86:	4307      	orrs	r7, r0
    3b88:	2400      	movs	r4, #0
    3b8a:	18bf      	adds	r7, r7, r2
    3b8c:	e748      	b.n	3a20 <__aeabi_dsub+0x4ac>
    3b8e:	2400      	movs	r4, #0
    3b90:	e7d0      	b.n	3b34 <__aeabi_dsub+0x5c0>
    3b92:	2400      	movs	r4, #0
    3b94:	e7f3      	b.n	3b7e <__aeabi_dsub+0x60a>
    3b96:	46c0      	nop			; (mov r8, r8)
    3b98:	000007ff 	.word	0x000007ff
    3b9c:	ff7fffff 	.word	0xff7fffff

00003ba0 <__aeabi_d2iz>:
    3ba0:	b530      	push	{r4, r5, lr}
    3ba2:	4d13      	ldr	r5, [pc, #76]	; (3bf0 <__aeabi_d2iz+0x50>)
    3ba4:	030a      	lsls	r2, r1, #12
    3ba6:	004b      	lsls	r3, r1, #1
    3ba8:	0b12      	lsrs	r2, r2, #12
    3baa:	0d5b      	lsrs	r3, r3, #21
    3bac:	0fc9      	lsrs	r1, r1, #31
    3bae:	2400      	movs	r4, #0
    3bb0:	42ab      	cmp	r3, r5
    3bb2:	dd10      	ble.n	3bd6 <__aeabi_d2iz+0x36>
    3bb4:	4c0f      	ldr	r4, [pc, #60]	; (3bf4 <__aeabi_d2iz+0x54>)
    3bb6:	42a3      	cmp	r3, r4
    3bb8:	dc0f      	bgt.n	3bda <__aeabi_d2iz+0x3a>
    3bba:	2480      	movs	r4, #128	; 0x80
    3bbc:	4d0e      	ldr	r5, [pc, #56]	; (3bf8 <__aeabi_d2iz+0x58>)
    3bbe:	0364      	lsls	r4, r4, #13
    3bc0:	4322      	orrs	r2, r4
    3bc2:	1aed      	subs	r5, r5, r3
    3bc4:	2d1f      	cmp	r5, #31
    3bc6:	dd0b      	ble.n	3be0 <__aeabi_d2iz+0x40>
    3bc8:	480c      	ldr	r0, [pc, #48]	; (3bfc <__aeabi_d2iz+0x5c>)
    3bca:	1ac3      	subs	r3, r0, r3
    3bcc:	40da      	lsrs	r2, r3
    3bce:	4254      	negs	r4, r2
    3bd0:	2900      	cmp	r1, #0
    3bd2:	d100      	bne.n	3bd6 <__aeabi_d2iz+0x36>
    3bd4:	0014      	movs	r4, r2
    3bd6:	0020      	movs	r0, r4
    3bd8:	bd30      	pop	{r4, r5, pc}
    3bda:	4b09      	ldr	r3, [pc, #36]	; (3c00 <__aeabi_d2iz+0x60>)
    3bdc:	18cc      	adds	r4, r1, r3
    3bde:	e7fa      	b.n	3bd6 <__aeabi_d2iz+0x36>
    3be0:	4c08      	ldr	r4, [pc, #32]	; (3c04 <__aeabi_d2iz+0x64>)
    3be2:	40e8      	lsrs	r0, r5
    3be4:	46a4      	mov	ip, r4
    3be6:	4463      	add	r3, ip
    3be8:	409a      	lsls	r2, r3
    3bea:	4302      	orrs	r2, r0
    3bec:	e7ef      	b.n	3bce <__aeabi_d2iz+0x2e>
    3bee:	46c0      	nop			; (mov r8, r8)
    3bf0:	000003fe 	.word	0x000003fe
    3bf4:	0000041d 	.word	0x0000041d
    3bf8:	00000433 	.word	0x00000433
    3bfc:	00000413 	.word	0x00000413
    3c00:	7fffffff 	.word	0x7fffffff
    3c04:	fffffbed 	.word	0xfffffbed

00003c08 <__aeabi_ui2d>:
    3c08:	b510      	push	{r4, lr}
    3c0a:	1e04      	subs	r4, r0, #0
    3c0c:	d028      	beq.n	3c60 <__aeabi_ui2d+0x58>
    3c0e:	f000 f833 	bl	3c78 <__clzsi2>
    3c12:	4b15      	ldr	r3, [pc, #84]	; (3c68 <__aeabi_ui2d+0x60>)
    3c14:	4a15      	ldr	r2, [pc, #84]	; (3c6c <__aeabi_ui2d+0x64>)
    3c16:	1a1b      	subs	r3, r3, r0
    3c18:	1ad2      	subs	r2, r2, r3
    3c1a:	2a1f      	cmp	r2, #31
    3c1c:	dd15      	ble.n	3c4a <__aeabi_ui2d+0x42>
    3c1e:	4a14      	ldr	r2, [pc, #80]	; (3c70 <__aeabi_ui2d+0x68>)
    3c20:	1ad2      	subs	r2, r2, r3
    3c22:	4094      	lsls	r4, r2
    3c24:	2200      	movs	r2, #0
    3c26:	0324      	lsls	r4, r4, #12
    3c28:	055b      	lsls	r3, r3, #21
    3c2a:	0b24      	lsrs	r4, r4, #12
    3c2c:	0d5b      	lsrs	r3, r3, #21
    3c2e:	2100      	movs	r1, #0
    3c30:	0010      	movs	r0, r2
    3c32:	0324      	lsls	r4, r4, #12
    3c34:	0d0a      	lsrs	r2, r1, #20
    3c36:	0b24      	lsrs	r4, r4, #12
    3c38:	0512      	lsls	r2, r2, #20
    3c3a:	4322      	orrs	r2, r4
    3c3c:	4c0d      	ldr	r4, [pc, #52]	; (3c74 <__aeabi_ui2d+0x6c>)
    3c3e:	051b      	lsls	r3, r3, #20
    3c40:	4022      	ands	r2, r4
    3c42:	4313      	orrs	r3, r2
    3c44:	005b      	lsls	r3, r3, #1
    3c46:	0859      	lsrs	r1, r3, #1
    3c48:	bd10      	pop	{r4, pc}
    3c4a:	0021      	movs	r1, r4
    3c4c:	4091      	lsls	r1, r2
    3c4e:	000a      	movs	r2, r1
    3c50:	210b      	movs	r1, #11
    3c52:	1a08      	subs	r0, r1, r0
    3c54:	40c4      	lsrs	r4, r0
    3c56:	055b      	lsls	r3, r3, #21
    3c58:	0324      	lsls	r4, r4, #12
    3c5a:	0b24      	lsrs	r4, r4, #12
    3c5c:	0d5b      	lsrs	r3, r3, #21
    3c5e:	e7e6      	b.n	3c2e <__aeabi_ui2d+0x26>
    3c60:	2300      	movs	r3, #0
    3c62:	2400      	movs	r4, #0
    3c64:	2200      	movs	r2, #0
    3c66:	e7e2      	b.n	3c2e <__aeabi_ui2d+0x26>
    3c68:	0000041e 	.word	0x0000041e
    3c6c:	00000433 	.word	0x00000433
    3c70:	00000413 	.word	0x00000413
    3c74:	800fffff 	.word	0x800fffff

00003c78 <__clzsi2>:
    3c78:	211c      	movs	r1, #28
    3c7a:	2301      	movs	r3, #1
    3c7c:	041b      	lsls	r3, r3, #16
    3c7e:	4298      	cmp	r0, r3
    3c80:	d301      	bcc.n	3c86 <__clzsi2+0xe>
    3c82:	0c00      	lsrs	r0, r0, #16
    3c84:	3910      	subs	r1, #16
    3c86:	0a1b      	lsrs	r3, r3, #8
    3c88:	4298      	cmp	r0, r3
    3c8a:	d301      	bcc.n	3c90 <__clzsi2+0x18>
    3c8c:	0a00      	lsrs	r0, r0, #8
    3c8e:	3908      	subs	r1, #8
    3c90:	091b      	lsrs	r3, r3, #4
    3c92:	4298      	cmp	r0, r3
    3c94:	d301      	bcc.n	3c9a <__clzsi2+0x22>
    3c96:	0900      	lsrs	r0, r0, #4
    3c98:	3904      	subs	r1, #4
    3c9a:	a202      	add	r2, pc, #8	; (adr r2, 3ca4 <__clzsi2+0x2c>)
    3c9c:	5c10      	ldrb	r0, [r2, r0]
    3c9e:	1840      	adds	r0, r0, r1
    3ca0:	4770      	bx	lr
    3ca2:	46c0      	nop			; (mov r8, r8)
    3ca4:	02020304 	.word	0x02020304
    3ca8:	01010101 	.word	0x01010101
	...

00003cb4 <__clzdi2>:
    3cb4:	b510      	push	{r4, lr}
    3cb6:	2900      	cmp	r1, #0
    3cb8:	d103      	bne.n	3cc2 <__clzdi2+0xe>
    3cba:	f7ff ffdd 	bl	3c78 <__clzsi2>
    3cbe:	3020      	adds	r0, #32
    3cc0:	e002      	b.n	3cc8 <__clzdi2+0x14>
    3cc2:	1c08      	adds	r0, r1, #0
    3cc4:	f7ff ffd8 	bl	3c78 <__clzsi2>
    3cc8:	bd10      	pop	{r4, pc}
    3cca:	46c0      	nop			; (mov r8, r8)

00003ccc <__libc_init_array>:
    3ccc:	b570      	push	{r4, r5, r6, lr}
    3cce:	2600      	movs	r6, #0
    3cd0:	4d0c      	ldr	r5, [pc, #48]	; (3d04 <__libc_init_array+0x38>)
    3cd2:	4c0d      	ldr	r4, [pc, #52]	; (3d08 <__libc_init_array+0x3c>)
    3cd4:	1b64      	subs	r4, r4, r5
    3cd6:	10a4      	asrs	r4, r4, #2
    3cd8:	42a6      	cmp	r6, r4
    3cda:	d109      	bne.n	3cf0 <__libc_init_array+0x24>
    3cdc:	2600      	movs	r6, #0
    3cde:	f000 fce9 	bl	46b4 <_init>
    3ce2:	4d0a      	ldr	r5, [pc, #40]	; (3d0c <__libc_init_array+0x40>)
    3ce4:	4c0a      	ldr	r4, [pc, #40]	; (3d10 <__libc_init_array+0x44>)
    3ce6:	1b64      	subs	r4, r4, r5
    3ce8:	10a4      	asrs	r4, r4, #2
    3cea:	42a6      	cmp	r6, r4
    3cec:	d105      	bne.n	3cfa <__libc_init_array+0x2e>
    3cee:	bd70      	pop	{r4, r5, r6, pc}
    3cf0:	00b3      	lsls	r3, r6, #2
    3cf2:	58eb      	ldr	r3, [r5, r3]
    3cf4:	4798      	blx	r3
    3cf6:	3601      	adds	r6, #1
    3cf8:	e7ee      	b.n	3cd8 <__libc_init_array+0xc>
    3cfa:	00b3      	lsls	r3, r6, #2
    3cfc:	58eb      	ldr	r3, [r5, r3]
    3cfe:	4798      	blx	r3
    3d00:	3601      	adds	r6, #1
    3d02:	e7f2      	b.n	3cea <__libc_init_array+0x1e>
    3d04:	000046c0 	.word	0x000046c0
    3d08:	000046c0 	.word	0x000046c0
    3d0c:	000046c0 	.word	0x000046c0
    3d10:	000046c4 	.word	0x000046c4

00003d14 <malloc>:
    3d14:	b510      	push	{r4, lr}
    3d16:	4b03      	ldr	r3, [pc, #12]	; (3d24 <malloc+0x10>)
    3d18:	0001      	movs	r1, r0
    3d1a:	6818      	ldr	r0, [r3, #0]
    3d1c:	f000 f84e 	bl	3dbc <_malloc_r>
    3d20:	bd10      	pop	{r4, pc}
    3d22:	46c0      	nop			; (mov r8, r8)
    3d24:	20000110 	.word	0x20000110

00003d28 <_free_r>:
    3d28:	b570      	push	{r4, r5, r6, lr}
    3d2a:	0005      	movs	r5, r0
    3d2c:	2900      	cmp	r1, #0
    3d2e:	d010      	beq.n	3d52 <_free_r+0x2a>
    3d30:	1f0c      	subs	r4, r1, #4
    3d32:	6823      	ldr	r3, [r4, #0]
    3d34:	2b00      	cmp	r3, #0
    3d36:	da00      	bge.n	3d3a <_free_r+0x12>
    3d38:	18e4      	adds	r4, r4, r3
    3d3a:	0028      	movs	r0, r5
    3d3c:	f000 f8d7 	bl	3eee <__malloc_lock>
    3d40:	4a1d      	ldr	r2, [pc, #116]	; (3db8 <_free_r+0x90>)
    3d42:	6813      	ldr	r3, [r2, #0]
    3d44:	2b00      	cmp	r3, #0
    3d46:	d105      	bne.n	3d54 <_free_r+0x2c>
    3d48:	6063      	str	r3, [r4, #4]
    3d4a:	6014      	str	r4, [r2, #0]
    3d4c:	0028      	movs	r0, r5
    3d4e:	f000 f8cf 	bl	3ef0 <__malloc_unlock>
    3d52:	bd70      	pop	{r4, r5, r6, pc}
    3d54:	42a3      	cmp	r3, r4
    3d56:	d909      	bls.n	3d6c <_free_r+0x44>
    3d58:	6821      	ldr	r1, [r4, #0]
    3d5a:	1860      	adds	r0, r4, r1
    3d5c:	4283      	cmp	r3, r0
    3d5e:	d1f3      	bne.n	3d48 <_free_r+0x20>
    3d60:	6818      	ldr	r0, [r3, #0]
    3d62:	685b      	ldr	r3, [r3, #4]
    3d64:	1841      	adds	r1, r0, r1
    3d66:	6021      	str	r1, [r4, #0]
    3d68:	e7ee      	b.n	3d48 <_free_r+0x20>
    3d6a:	0013      	movs	r3, r2
    3d6c:	685a      	ldr	r2, [r3, #4]
    3d6e:	2a00      	cmp	r2, #0
    3d70:	d001      	beq.n	3d76 <_free_r+0x4e>
    3d72:	42a2      	cmp	r2, r4
    3d74:	d9f9      	bls.n	3d6a <_free_r+0x42>
    3d76:	6819      	ldr	r1, [r3, #0]
    3d78:	1858      	adds	r0, r3, r1
    3d7a:	42a0      	cmp	r0, r4
    3d7c:	d10b      	bne.n	3d96 <_free_r+0x6e>
    3d7e:	6820      	ldr	r0, [r4, #0]
    3d80:	1809      	adds	r1, r1, r0
    3d82:	1858      	adds	r0, r3, r1
    3d84:	6019      	str	r1, [r3, #0]
    3d86:	4282      	cmp	r2, r0
    3d88:	d1e0      	bne.n	3d4c <_free_r+0x24>
    3d8a:	6810      	ldr	r0, [r2, #0]
    3d8c:	6852      	ldr	r2, [r2, #4]
    3d8e:	1841      	adds	r1, r0, r1
    3d90:	6019      	str	r1, [r3, #0]
    3d92:	605a      	str	r2, [r3, #4]
    3d94:	e7da      	b.n	3d4c <_free_r+0x24>
    3d96:	42a0      	cmp	r0, r4
    3d98:	d902      	bls.n	3da0 <_free_r+0x78>
    3d9a:	230c      	movs	r3, #12
    3d9c:	602b      	str	r3, [r5, #0]
    3d9e:	e7d5      	b.n	3d4c <_free_r+0x24>
    3da0:	6821      	ldr	r1, [r4, #0]
    3da2:	1860      	adds	r0, r4, r1
    3da4:	4282      	cmp	r2, r0
    3da6:	d103      	bne.n	3db0 <_free_r+0x88>
    3da8:	6810      	ldr	r0, [r2, #0]
    3daa:	6852      	ldr	r2, [r2, #4]
    3dac:	1841      	adds	r1, r0, r1
    3dae:	6021      	str	r1, [r4, #0]
    3db0:	6062      	str	r2, [r4, #4]
    3db2:	605c      	str	r4, [r3, #4]
    3db4:	e7ca      	b.n	3d4c <_free_r+0x24>
    3db6:	46c0      	nop			; (mov r8, r8)
    3db8:	200002d0 	.word	0x200002d0

00003dbc <_malloc_r>:
    3dbc:	2303      	movs	r3, #3
    3dbe:	b570      	push	{r4, r5, r6, lr}
    3dc0:	1ccd      	adds	r5, r1, #3
    3dc2:	439d      	bics	r5, r3
    3dc4:	3508      	adds	r5, #8
    3dc6:	0006      	movs	r6, r0
    3dc8:	2d0c      	cmp	r5, #12
    3dca:	d21e      	bcs.n	3e0a <_malloc_r+0x4e>
    3dcc:	250c      	movs	r5, #12
    3dce:	42a9      	cmp	r1, r5
    3dd0:	d81d      	bhi.n	3e0e <_malloc_r+0x52>
    3dd2:	0030      	movs	r0, r6
    3dd4:	f000 f88b 	bl	3eee <__malloc_lock>
    3dd8:	4a25      	ldr	r2, [pc, #148]	; (3e70 <_malloc_r+0xb4>)
    3dda:	6814      	ldr	r4, [r2, #0]
    3ddc:	0021      	movs	r1, r4
    3dde:	2900      	cmp	r1, #0
    3de0:	d119      	bne.n	3e16 <_malloc_r+0x5a>
    3de2:	4c24      	ldr	r4, [pc, #144]	; (3e74 <_malloc_r+0xb8>)
    3de4:	6823      	ldr	r3, [r4, #0]
    3de6:	2b00      	cmp	r3, #0
    3de8:	d103      	bne.n	3df2 <_malloc_r+0x36>
    3dea:	0030      	movs	r0, r6
    3dec:	f000 f844 	bl	3e78 <_sbrk_r>
    3df0:	6020      	str	r0, [r4, #0]
    3df2:	0029      	movs	r1, r5
    3df4:	0030      	movs	r0, r6
    3df6:	f000 f83f 	bl	3e78 <_sbrk_r>
    3dfa:	1c43      	adds	r3, r0, #1
    3dfc:	d12c      	bne.n	3e58 <_malloc_r+0x9c>
    3dfe:	230c      	movs	r3, #12
    3e00:	0030      	movs	r0, r6
    3e02:	6033      	str	r3, [r6, #0]
    3e04:	f000 f874 	bl	3ef0 <__malloc_unlock>
    3e08:	e003      	b.n	3e12 <_malloc_r+0x56>
    3e0a:	2d00      	cmp	r5, #0
    3e0c:	dadf      	bge.n	3dce <_malloc_r+0x12>
    3e0e:	230c      	movs	r3, #12
    3e10:	6033      	str	r3, [r6, #0]
    3e12:	2000      	movs	r0, #0
    3e14:	bd70      	pop	{r4, r5, r6, pc}
    3e16:	680b      	ldr	r3, [r1, #0]
    3e18:	1b5b      	subs	r3, r3, r5
    3e1a:	d41a      	bmi.n	3e52 <_malloc_r+0x96>
    3e1c:	2b0b      	cmp	r3, #11
    3e1e:	d903      	bls.n	3e28 <_malloc_r+0x6c>
    3e20:	600b      	str	r3, [r1, #0]
    3e22:	18cc      	adds	r4, r1, r3
    3e24:	6025      	str	r5, [r4, #0]
    3e26:	e003      	b.n	3e30 <_malloc_r+0x74>
    3e28:	428c      	cmp	r4, r1
    3e2a:	d10e      	bne.n	3e4a <_malloc_r+0x8e>
    3e2c:	6863      	ldr	r3, [r4, #4]
    3e2e:	6013      	str	r3, [r2, #0]
    3e30:	0030      	movs	r0, r6
    3e32:	f000 f85d 	bl	3ef0 <__malloc_unlock>
    3e36:	0020      	movs	r0, r4
    3e38:	2207      	movs	r2, #7
    3e3a:	300b      	adds	r0, #11
    3e3c:	1d23      	adds	r3, r4, #4
    3e3e:	4390      	bics	r0, r2
    3e40:	1ac3      	subs	r3, r0, r3
    3e42:	d0e7      	beq.n	3e14 <_malloc_r+0x58>
    3e44:	425a      	negs	r2, r3
    3e46:	50e2      	str	r2, [r4, r3]
    3e48:	e7e4      	b.n	3e14 <_malloc_r+0x58>
    3e4a:	684b      	ldr	r3, [r1, #4]
    3e4c:	6063      	str	r3, [r4, #4]
    3e4e:	000c      	movs	r4, r1
    3e50:	e7ee      	b.n	3e30 <_malloc_r+0x74>
    3e52:	000c      	movs	r4, r1
    3e54:	6849      	ldr	r1, [r1, #4]
    3e56:	e7c2      	b.n	3dde <_malloc_r+0x22>
    3e58:	2303      	movs	r3, #3
    3e5a:	1cc4      	adds	r4, r0, #3
    3e5c:	439c      	bics	r4, r3
    3e5e:	42a0      	cmp	r0, r4
    3e60:	d0e0      	beq.n	3e24 <_malloc_r+0x68>
    3e62:	1a21      	subs	r1, r4, r0
    3e64:	0030      	movs	r0, r6
    3e66:	f000 f807 	bl	3e78 <_sbrk_r>
    3e6a:	1c43      	adds	r3, r0, #1
    3e6c:	d1da      	bne.n	3e24 <_malloc_r+0x68>
    3e6e:	e7c6      	b.n	3dfe <_malloc_r+0x42>
    3e70:	200002d0 	.word	0x200002d0
    3e74:	200002d4 	.word	0x200002d4

00003e78 <_sbrk_r>:
    3e78:	2300      	movs	r3, #0
    3e7a:	b570      	push	{r4, r5, r6, lr}
    3e7c:	4c06      	ldr	r4, [pc, #24]	; (3e98 <_sbrk_r+0x20>)
    3e7e:	0005      	movs	r5, r0
    3e80:	0008      	movs	r0, r1
    3e82:	6023      	str	r3, [r4, #0]
    3e84:	f7fe f800 	bl	1e88 <_sbrk>
    3e88:	1c43      	adds	r3, r0, #1
    3e8a:	d103      	bne.n	3e94 <_sbrk_r+0x1c>
    3e8c:	6823      	ldr	r3, [r4, #0]
    3e8e:	2b00      	cmp	r3, #0
    3e90:	d000      	beq.n	3e94 <_sbrk_r+0x1c>
    3e92:	602b      	str	r3, [r5, #0]
    3e94:	bd70      	pop	{r4, r5, r6, pc}
    3e96:	46c0      	nop			; (mov r8, r8)
    3e98:	200007a8 	.word	0x200007a8

00003e9c <siprintf>:
    3e9c:	b40e      	push	{r1, r2, r3}
    3e9e:	b510      	push	{r4, lr}
    3ea0:	b09d      	sub	sp, #116	; 0x74
    3ea2:	a902      	add	r1, sp, #8
    3ea4:	9002      	str	r0, [sp, #8]
    3ea6:	6108      	str	r0, [r1, #16]
    3ea8:	480b      	ldr	r0, [pc, #44]	; (3ed8 <siprintf+0x3c>)
    3eaa:	2482      	movs	r4, #130	; 0x82
    3eac:	6088      	str	r0, [r1, #8]
    3eae:	6148      	str	r0, [r1, #20]
    3eb0:	2001      	movs	r0, #1
    3eb2:	4240      	negs	r0, r0
    3eb4:	ab1f      	add	r3, sp, #124	; 0x7c
    3eb6:	81c8      	strh	r0, [r1, #14]
    3eb8:	4808      	ldr	r0, [pc, #32]	; (3edc <siprintf+0x40>)
    3eba:	cb04      	ldmia	r3!, {r2}
    3ebc:	00a4      	lsls	r4, r4, #2
    3ebe:	6800      	ldr	r0, [r0, #0]
    3ec0:	9301      	str	r3, [sp, #4]
    3ec2:	818c      	strh	r4, [r1, #12]
    3ec4:	f000 f878 	bl	3fb8 <_svfiprintf_r>
    3ec8:	2300      	movs	r3, #0
    3eca:	9a02      	ldr	r2, [sp, #8]
    3ecc:	7013      	strb	r3, [r2, #0]
    3ece:	b01d      	add	sp, #116	; 0x74
    3ed0:	bc10      	pop	{r4}
    3ed2:	bc08      	pop	{r3}
    3ed4:	b003      	add	sp, #12
    3ed6:	4718      	bx	r3
    3ed8:	7fffffff 	.word	0x7fffffff
    3edc:	20000110 	.word	0x20000110

00003ee0 <strlen>:
    3ee0:	2300      	movs	r3, #0
    3ee2:	5cc2      	ldrb	r2, [r0, r3]
    3ee4:	3301      	adds	r3, #1
    3ee6:	2a00      	cmp	r2, #0
    3ee8:	d1fb      	bne.n	3ee2 <strlen+0x2>
    3eea:	1e58      	subs	r0, r3, #1
    3eec:	4770      	bx	lr

00003eee <__malloc_lock>:
    3eee:	4770      	bx	lr

00003ef0 <__malloc_unlock>:
    3ef0:	4770      	bx	lr
	...

00003ef4 <__ssputs_r>:
    3ef4:	b5f0      	push	{r4, r5, r6, r7, lr}
    3ef6:	688e      	ldr	r6, [r1, #8]
    3ef8:	b085      	sub	sp, #20
    3efa:	0007      	movs	r7, r0
    3efc:	000c      	movs	r4, r1
    3efe:	9203      	str	r2, [sp, #12]
    3f00:	9301      	str	r3, [sp, #4]
    3f02:	429e      	cmp	r6, r3
    3f04:	d839      	bhi.n	3f7a <__ssputs_r+0x86>
    3f06:	2390      	movs	r3, #144	; 0x90
    3f08:	898a      	ldrh	r2, [r1, #12]
    3f0a:	00db      	lsls	r3, r3, #3
    3f0c:	421a      	tst	r2, r3
    3f0e:	d034      	beq.n	3f7a <__ssputs_r+0x86>
    3f10:	2503      	movs	r5, #3
    3f12:	6909      	ldr	r1, [r1, #16]
    3f14:	6823      	ldr	r3, [r4, #0]
    3f16:	1a5b      	subs	r3, r3, r1
    3f18:	9302      	str	r3, [sp, #8]
    3f1a:	6963      	ldr	r3, [r4, #20]
    3f1c:	9802      	ldr	r0, [sp, #8]
    3f1e:	435d      	muls	r5, r3
    3f20:	0feb      	lsrs	r3, r5, #31
    3f22:	195d      	adds	r5, r3, r5
    3f24:	9b01      	ldr	r3, [sp, #4]
    3f26:	106d      	asrs	r5, r5, #1
    3f28:	3301      	adds	r3, #1
    3f2a:	181b      	adds	r3, r3, r0
    3f2c:	42ab      	cmp	r3, r5
    3f2e:	d900      	bls.n	3f32 <__ssputs_r+0x3e>
    3f30:	001d      	movs	r5, r3
    3f32:	0553      	lsls	r3, r2, #21
    3f34:	d532      	bpl.n	3f9c <__ssputs_r+0xa8>
    3f36:	0029      	movs	r1, r5
    3f38:	0038      	movs	r0, r7
    3f3a:	f7ff ff3f 	bl	3dbc <_malloc_r>
    3f3e:	1e06      	subs	r6, r0, #0
    3f40:	d109      	bne.n	3f56 <__ssputs_r+0x62>
    3f42:	230c      	movs	r3, #12
    3f44:	603b      	str	r3, [r7, #0]
    3f46:	2340      	movs	r3, #64	; 0x40
    3f48:	2001      	movs	r0, #1
    3f4a:	89a2      	ldrh	r2, [r4, #12]
    3f4c:	4240      	negs	r0, r0
    3f4e:	4313      	orrs	r3, r2
    3f50:	81a3      	strh	r3, [r4, #12]
    3f52:	b005      	add	sp, #20
    3f54:	bdf0      	pop	{r4, r5, r6, r7, pc}
    3f56:	9a02      	ldr	r2, [sp, #8]
    3f58:	6921      	ldr	r1, [r4, #16]
    3f5a:	f000 fac4 	bl	44e6 <memcpy>
    3f5e:	89a3      	ldrh	r3, [r4, #12]
    3f60:	4a14      	ldr	r2, [pc, #80]	; (3fb4 <__ssputs_r+0xc0>)
    3f62:	401a      	ands	r2, r3
    3f64:	2380      	movs	r3, #128	; 0x80
    3f66:	4313      	orrs	r3, r2
    3f68:	81a3      	strh	r3, [r4, #12]
    3f6a:	9b02      	ldr	r3, [sp, #8]
    3f6c:	6126      	str	r6, [r4, #16]
    3f6e:	18f6      	adds	r6, r6, r3
    3f70:	6026      	str	r6, [r4, #0]
    3f72:	6165      	str	r5, [r4, #20]
    3f74:	9e01      	ldr	r6, [sp, #4]
    3f76:	1aed      	subs	r5, r5, r3
    3f78:	60a5      	str	r5, [r4, #8]
    3f7a:	9b01      	ldr	r3, [sp, #4]
    3f7c:	42b3      	cmp	r3, r6
    3f7e:	d200      	bcs.n	3f82 <__ssputs_r+0x8e>
    3f80:	001e      	movs	r6, r3
    3f82:	0032      	movs	r2, r6
    3f84:	9903      	ldr	r1, [sp, #12]
    3f86:	6820      	ldr	r0, [r4, #0]
    3f88:	f000 fab6 	bl	44f8 <memmove>
    3f8c:	68a3      	ldr	r3, [r4, #8]
    3f8e:	2000      	movs	r0, #0
    3f90:	1b9b      	subs	r3, r3, r6
    3f92:	60a3      	str	r3, [r4, #8]
    3f94:	6823      	ldr	r3, [r4, #0]
    3f96:	199e      	adds	r6, r3, r6
    3f98:	6026      	str	r6, [r4, #0]
    3f9a:	e7da      	b.n	3f52 <__ssputs_r+0x5e>
    3f9c:	002a      	movs	r2, r5
    3f9e:	0038      	movs	r0, r7
    3fa0:	f000 fabc 	bl	451c <_realloc_r>
    3fa4:	1e06      	subs	r6, r0, #0
    3fa6:	d1e0      	bne.n	3f6a <__ssputs_r+0x76>
    3fa8:	6921      	ldr	r1, [r4, #16]
    3faa:	0038      	movs	r0, r7
    3fac:	f7ff febc 	bl	3d28 <_free_r>
    3fb0:	e7c7      	b.n	3f42 <__ssputs_r+0x4e>
    3fb2:	46c0      	nop			; (mov r8, r8)
    3fb4:	fffffb7f 	.word	0xfffffb7f

00003fb8 <_svfiprintf_r>:
    3fb8:	b5f0      	push	{r4, r5, r6, r7, lr}
    3fba:	b09f      	sub	sp, #124	; 0x7c
    3fbc:	9002      	str	r0, [sp, #8]
    3fbe:	9305      	str	r3, [sp, #20]
    3fc0:	898b      	ldrh	r3, [r1, #12]
    3fc2:	000f      	movs	r7, r1
    3fc4:	0016      	movs	r6, r2
    3fc6:	061b      	lsls	r3, r3, #24
    3fc8:	d511      	bpl.n	3fee <_svfiprintf_r+0x36>
    3fca:	690b      	ldr	r3, [r1, #16]
    3fcc:	2b00      	cmp	r3, #0
    3fce:	d10e      	bne.n	3fee <_svfiprintf_r+0x36>
    3fd0:	2140      	movs	r1, #64	; 0x40
    3fd2:	f7ff fef3 	bl	3dbc <_malloc_r>
    3fd6:	6038      	str	r0, [r7, #0]
    3fd8:	6138      	str	r0, [r7, #16]
    3fda:	2800      	cmp	r0, #0
    3fdc:	d105      	bne.n	3fea <_svfiprintf_r+0x32>
    3fde:	230c      	movs	r3, #12
    3fe0:	9a02      	ldr	r2, [sp, #8]
    3fe2:	3801      	subs	r0, #1
    3fe4:	6013      	str	r3, [r2, #0]
    3fe6:	b01f      	add	sp, #124	; 0x7c
    3fe8:	bdf0      	pop	{r4, r5, r6, r7, pc}
    3fea:	2340      	movs	r3, #64	; 0x40
    3fec:	617b      	str	r3, [r7, #20]
    3fee:	2300      	movs	r3, #0
    3ff0:	ad06      	add	r5, sp, #24
    3ff2:	616b      	str	r3, [r5, #20]
    3ff4:	3320      	adds	r3, #32
    3ff6:	766b      	strb	r3, [r5, #25]
    3ff8:	3310      	adds	r3, #16
    3ffa:	76ab      	strb	r3, [r5, #26]
    3ffc:	0034      	movs	r4, r6
    3ffe:	7823      	ldrb	r3, [r4, #0]
    4000:	2b00      	cmp	r3, #0
    4002:	d147      	bne.n	4094 <_svfiprintf_r+0xdc>
    4004:	1ba3      	subs	r3, r4, r6
    4006:	9304      	str	r3, [sp, #16]
    4008:	d00d      	beq.n	4026 <_svfiprintf_r+0x6e>
    400a:	1ba3      	subs	r3, r4, r6
    400c:	0032      	movs	r2, r6
    400e:	0039      	movs	r1, r7
    4010:	9802      	ldr	r0, [sp, #8]
    4012:	f7ff ff6f 	bl	3ef4 <__ssputs_r>
    4016:	1c43      	adds	r3, r0, #1
    4018:	d100      	bne.n	401c <_svfiprintf_r+0x64>
    401a:	e0b5      	b.n	4188 <_svfiprintf_r+0x1d0>
    401c:	696a      	ldr	r2, [r5, #20]
    401e:	9b04      	ldr	r3, [sp, #16]
    4020:	4694      	mov	ip, r2
    4022:	4463      	add	r3, ip
    4024:	616b      	str	r3, [r5, #20]
    4026:	7823      	ldrb	r3, [r4, #0]
    4028:	2b00      	cmp	r3, #0
    402a:	d100      	bne.n	402e <_svfiprintf_r+0x76>
    402c:	e0ac      	b.n	4188 <_svfiprintf_r+0x1d0>
    402e:	2201      	movs	r2, #1
    4030:	2300      	movs	r3, #0
    4032:	4252      	negs	r2, r2
    4034:	606a      	str	r2, [r5, #4]
    4036:	a902      	add	r1, sp, #8
    4038:	3254      	adds	r2, #84	; 0x54
    403a:	1852      	adds	r2, r2, r1
    403c:	3401      	adds	r4, #1
    403e:	602b      	str	r3, [r5, #0]
    4040:	60eb      	str	r3, [r5, #12]
    4042:	60ab      	str	r3, [r5, #8]
    4044:	7013      	strb	r3, [r2, #0]
    4046:	65ab      	str	r3, [r5, #88]	; 0x58
    4048:	4e58      	ldr	r6, [pc, #352]	; (41ac <_svfiprintf_r+0x1f4>)
    404a:	2205      	movs	r2, #5
    404c:	7821      	ldrb	r1, [r4, #0]
    404e:	0030      	movs	r0, r6
    4050:	f000 fa3e 	bl	44d0 <memchr>
    4054:	1c62      	adds	r2, r4, #1
    4056:	2800      	cmp	r0, #0
    4058:	d120      	bne.n	409c <_svfiprintf_r+0xe4>
    405a:	6829      	ldr	r1, [r5, #0]
    405c:	06cb      	lsls	r3, r1, #27
    405e:	d504      	bpl.n	406a <_svfiprintf_r+0xb2>
    4060:	2353      	movs	r3, #83	; 0x53
    4062:	ae02      	add	r6, sp, #8
    4064:	3020      	adds	r0, #32
    4066:	199b      	adds	r3, r3, r6
    4068:	7018      	strb	r0, [r3, #0]
    406a:	070b      	lsls	r3, r1, #28
    406c:	d504      	bpl.n	4078 <_svfiprintf_r+0xc0>
    406e:	2353      	movs	r3, #83	; 0x53
    4070:	202b      	movs	r0, #43	; 0x2b
    4072:	ae02      	add	r6, sp, #8
    4074:	199b      	adds	r3, r3, r6
    4076:	7018      	strb	r0, [r3, #0]
    4078:	7823      	ldrb	r3, [r4, #0]
    407a:	2b2a      	cmp	r3, #42	; 0x2a
    407c:	d016      	beq.n	40ac <_svfiprintf_r+0xf4>
    407e:	2000      	movs	r0, #0
    4080:	210a      	movs	r1, #10
    4082:	9b09      	ldr	r3, [sp, #36]	; 0x24
    4084:	7822      	ldrb	r2, [r4, #0]
    4086:	3a30      	subs	r2, #48	; 0x30
    4088:	2a09      	cmp	r2, #9
    408a:	d955      	bls.n	4138 <_svfiprintf_r+0x180>
    408c:	2800      	cmp	r0, #0
    408e:	d015      	beq.n	40bc <_svfiprintf_r+0x104>
    4090:	9309      	str	r3, [sp, #36]	; 0x24
    4092:	e013      	b.n	40bc <_svfiprintf_r+0x104>
    4094:	2b25      	cmp	r3, #37	; 0x25
    4096:	d0b5      	beq.n	4004 <_svfiprintf_r+0x4c>
    4098:	3401      	adds	r4, #1
    409a:	e7b0      	b.n	3ffe <_svfiprintf_r+0x46>
    409c:	2301      	movs	r3, #1
    409e:	1b80      	subs	r0, r0, r6
    40a0:	4083      	lsls	r3, r0
    40a2:	6829      	ldr	r1, [r5, #0]
    40a4:	0014      	movs	r4, r2
    40a6:	430b      	orrs	r3, r1
    40a8:	602b      	str	r3, [r5, #0]
    40aa:	e7cd      	b.n	4048 <_svfiprintf_r+0x90>
    40ac:	9b05      	ldr	r3, [sp, #20]
    40ae:	1d18      	adds	r0, r3, #4
    40b0:	681b      	ldr	r3, [r3, #0]
    40b2:	9005      	str	r0, [sp, #20]
    40b4:	2b00      	cmp	r3, #0
    40b6:	db39      	blt.n	412c <_svfiprintf_r+0x174>
    40b8:	9309      	str	r3, [sp, #36]	; 0x24
    40ba:	0014      	movs	r4, r2
    40bc:	7823      	ldrb	r3, [r4, #0]
    40be:	2b2e      	cmp	r3, #46	; 0x2e
    40c0:	d10b      	bne.n	40da <_svfiprintf_r+0x122>
    40c2:	7863      	ldrb	r3, [r4, #1]
    40c4:	1c62      	adds	r2, r4, #1
    40c6:	2b2a      	cmp	r3, #42	; 0x2a
    40c8:	d13e      	bne.n	4148 <_svfiprintf_r+0x190>
    40ca:	9b05      	ldr	r3, [sp, #20]
    40cc:	3402      	adds	r4, #2
    40ce:	1d1a      	adds	r2, r3, #4
    40d0:	681b      	ldr	r3, [r3, #0]
    40d2:	9205      	str	r2, [sp, #20]
    40d4:	2b00      	cmp	r3, #0
    40d6:	db34      	blt.n	4142 <_svfiprintf_r+0x18a>
    40d8:	9307      	str	r3, [sp, #28]
    40da:	4e35      	ldr	r6, [pc, #212]	; (41b0 <_svfiprintf_r+0x1f8>)
    40dc:	7821      	ldrb	r1, [r4, #0]
    40de:	2203      	movs	r2, #3
    40e0:	0030      	movs	r0, r6
    40e2:	f000 f9f5 	bl	44d0 <memchr>
    40e6:	2800      	cmp	r0, #0
    40e8:	d006      	beq.n	40f8 <_svfiprintf_r+0x140>
    40ea:	2340      	movs	r3, #64	; 0x40
    40ec:	1b80      	subs	r0, r0, r6
    40ee:	4083      	lsls	r3, r0
    40f0:	682a      	ldr	r2, [r5, #0]
    40f2:	3401      	adds	r4, #1
    40f4:	4313      	orrs	r3, r2
    40f6:	602b      	str	r3, [r5, #0]
    40f8:	7821      	ldrb	r1, [r4, #0]
    40fa:	2206      	movs	r2, #6
    40fc:	482d      	ldr	r0, [pc, #180]	; (41b4 <_svfiprintf_r+0x1fc>)
    40fe:	1c66      	adds	r6, r4, #1
    4100:	7629      	strb	r1, [r5, #24]
    4102:	f000 f9e5 	bl	44d0 <memchr>
    4106:	2800      	cmp	r0, #0
    4108:	d046      	beq.n	4198 <_svfiprintf_r+0x1e0>
    410a:	4b2b      	ldr	r3, [pc, #172]	; (41b8 <_svfiprintf_r+0x200>)
    410c:	2b00      	cmp	r3, #0
    410e:	d12f      	bne.n	4170 <_svfiprintf_r+0x1b8>
    4110:	6829      	ldr	r1, [r5, #0]
    4112:	9b05      	ldr	r3, [sp, #20]
    4114:	2207      	movs	r2, #7
    4116:	05c9      	lsls	r1, r1, #23
    4118:	d528      	bpl.n	416c <_svfiprintf_r+0x1b4>
    411a:	189b      	adds	r3, r3, r2
    411c:	4393      	bics	r3, r2
    411e:	3308      	adds	r3, #8
    4120:	9305      	str	r3, [sp, #20]
    4122:	696b      	ldr	r3, [r5, #20]
    4124:	9a03      	ldr	r2, [sp, #12]
    4126:	189b      	adds	r3, r3, r2
    4128:	616b      	str	r3, [r5, #20]
    412a:	e767      	b.n	3ffc <_svfiprintf_r+0x44>
    412c:	425b      	negs	r3, r3
    412e:	60eb      	str	r3, [r5, #12]
    4130:	2302      	movs	r3, #2
    4132:	430b      	orrs	r3, r1
    4134:	602b      	str	r3, [r5, #0]
    4136:	e7c0      	b.n	40ba <_svfiprintf_r+0x102>
    4138:	434b      	muls	r3, r1
    413a:	3401      	adds	r4, #1
    413c:	189b      	adds	r3, r3, r2
    413e:	2001      	movs	r0, #1
    4140:	e7a0      	b.n	4084 <_svfiprintf_r+0xcc>
    4142:	2301      	movs	r3, #1
    4144:	425b      	negs	r3, r3
    4146:	e7c7      	b.n	40d8 <_svfiprintf_r+0x120>
    4148:	2300      	movs	r3, #0
    414a:	0014      	movs	r4, r2
    414c:	200a      	movs	r0, #10
    414e:	001a      	movs	r2, r3
    4150:	606b      	str	r3, [r5, #4]
    4152:	7821      	ldrb	r1, [r4, #0]
    4154:	3930      	subs	r1, #48	; 0x30
    4156:	2909      	cmp	r1, #9
    4158:	d903      	bls.n	4162 <_svfiprintf_r+0x1aa>
    415a:	2b00      	cmp	r3, #0
    415c:	d0bd      	beq.n	40da <_svfiprintf_r+0x122>
    415e:	9207      	str	r2, [sp, #28]
    4160:	e7bb      	b.n	40da <_svfiprintf_r+0x122>
    4162:	4342      	muls	r2, r0
    4164:	3401      	adds	r4, #1
    4166:	1852      	adds	r2, r2, r1
    4168:	2301      	movs	r3, #1
    416a:	e7f2      	b.n	4152 <_svfiprintf_r+0x19a>
    416c:	3307      	adds	r3, #7
    416e:	e7d5      	b.n	411c <_svfiprintf_r+0x164>
    4170:	ab05      	add	r3, sp, #20
    4172:	9300      	str	r3, [sp, #0]
    4174:	003a      	movs	r2, r7
    4176:	4b11      	ldr	r3, [pc, #68]	; (41bc <_svfiprintf_r+0x204>)
    4178:	0029      	movs	r1, r5
    417a:	9802      	ldr	r0, [sp, #8]
    417c:	e000      	b.n	4180 <_svfiprintf_r+0x1c8>
    417e:	bf00      	nop
    4180:	9003      	str	r0, [sp, #12]
    4182:	9b03      	ldr	r3, [sp, #12]
    4184:	3301      	adds	r3, #1
    4186:	d1cc      	bne.n	4122 <_svfiprintf_r+0x16a>
    4188:	89bb      	ldrh	r3, [r7, #12]
    418a:	980b      	ldr	r0, [sp, #44]	; 0x2c
    418c:	065b      	lsls	r3, r3, #25
    418e:	d400      	bmi.n	4192 <_svfiprintf_r+0x1da>
    4190:	e729      	b.n	3fe6 <_svfiprintf_r+0x2e>
    4192:	2001      	movs	r0, #1
    4194:	4240      	negs	r0, r0
    4196:	e726      	b.n	3fe6 <_svfiprintf_r+0x2e>
    4198:	ab05      	add	r3, sp, #20
    419a:	9300      	str	r3, [sp, #0]
    419c:	003a      	movs	r2, r7
    419e:	4b07      	ldr	r3, [pc, #28]	; (41bc <_svfiprintf_r+0x204>)
    41a0:	0029      	movs	r1, r5
    41a2:	9802      	ldr	r0, [sp, #8]
    41a4:	f000 f87a 	bl	429c <_printf_i>
    41a8:	e7ea      	b.n	4180 <_svfiprintf_r+0x1c8>
    41aa:	46c0      	nop			; (mov r8, r8)
    41ac:	00004680 	.word	0x00004680
    41b0:	00004686 	.word	0x00004686
    41b4:	0000468a 	.word	0x0000468a
    41b8:	00000000 	.word	0x00000000
    41bc:	00003ef5 	.word	0x00003ef5

000041c0 <_printf_common>:
    41c0:	b5f7      	push	{r0, r1, r2, r4, r5, r6, r7, lr}
    41c2:	0015      	movs	r5, r2
    41c4:	9301      	str	r3, [sp, #4]
    41c6:	688a      	ldr	r2, [r1, #8]
    41c8:	690b      	ldr	r3, [r1, #16]
    41ca:	9000      	str	r0, [sp, #0]
    41cc:	000c      	movs	r4, r1
    41ce:	4293      	cmp	r3, r2
    41d0:	da00      	bge.n	41d4 <_printf_common+0x14>
    41d2:	0013      	movs	r3, r2
    41d4:	0022      	movs	r2, r4
    41d6:	602b      	str	r3, [r5, #0]
    41d8:	3243      	adds	r2, #67	; 0x43
    41da:	7812      	ldrb	r2, [r2, #0]
    41dc:	2a00      	cmp	r2, #0
    41de:	d001      	beq.n	41e4 <_printf_common+0x24>
    41e0:	3301      	adds	r3, #1
    41e2:	602b      	str	r3, [r5, #0]
    41e4:	6823      	ldr	r3, [r4, #0]
    41e6:	069b      	lsls	r3, r3, #26
    41e8:	d502      	bpl.n	41f0 <_printf_common+0x30>
    41ea:	682b      	ldr	r3, [r5, #0]
    41ec:	3302      	adds	r3, #2
    41ee:	602b      	str	r3, [r5, #0]
    41f0:	2706      	movs	r7, #6
    41f2:	6823      	ldr	r3, [r4, #0]
    41f4:	401f      	ands	r7, r3
    41f6:	d027      	beq.n	4248 <_printf_common+0x88>
    41f8:	0023      	movs	r3, r4
    41fa:	3343      	adds	r3, #67	; 0x43
    41fc:	781b      	ldrb	r3, [r3, #0]
    41fe:	1e5a      	subs	r2, r3, #1
    4200:	4193      	sbcs	r3, r2
    4202:	6822      	ldr	r2, [r4, #0]
    4204:	0692      	lsls	r2, r2, #26
    4206:	d430      	bmi.n	426a <_printf_common+0xaa>
    4208:	0022      	movs	r2, r4
    420a:	9901      	ldr	r1, [sp, #4]
    420c:	3243      	adds	r2, #67	; 0x43
    420e:	9800      	ldr	r0, [sp, #0]
    4210:	9e08      	ldr	r6, [sp, #32]
    4212:	47b0      	blx	r6
    4214:	1c43      	adds	r3, r0, #1
    4216:	d025      	beq.n	4264 <_printf_common+0xa4>
    4218:	2306      	movs	r3, #6
    421a:	6820      	ldr	r0, [r4, #0]
    421c:	682a      	ldr	r2, [r5, #0]
    421e:	68e1      	ldr	r1, [r4, #12]
    4220:	4003      	ands	r3, r0
    4222:	2500      	movs	r5, #0
    4224:	2b04      	cmp	r3, #4
    4226:	d103      	bne.n	4230 <_printf_common+0x70>
    4228:	1a8d      	subs	r5, r1, r2
    422a:	43eb      	mvns	r3, r5
    422c:	17db      	asrs	r3, r3, #31
    422e:	401d      	ands	r5, r3
    4230:	68a3      	ldr	r3, [r4, #8]
    4232:	6922      	ldr	r2, [r4, #16]
    4234:	4293      	cmp	r3, r2
    4236:	dd01      	ble.n	423c <_printf_common+0x7c>
    4238:	1a9b      	subs	r3, r3, r2
    423a:	18ed      	adds	r5, r5, r3
    423c:	2700      	movs	r7, #0
    423e:	42bd      	cmp	r5, r7
    4240:	d120      	bne.n	4284 <_printf_common+0xc4>
    4242:	2000      	movs	r0, #0
    4244:	e010      	b.n	4268 <_printf_common+0xa8>
    4246:	3701      	adds	r7, #1
    4248:	68e3      	ldr	r3, [r4, #12]
    424a:	682a      	ldr	r2, [r5, #0]
    424c:	1a9b      	subs	r3, r3, r2
    424e:	429f      	cmp	r7, r3
    4250:	dad2      	bge.n	41f8 <_printf_common+0x38>
    4252:	0022      	movs	r2, r4
    4254:	2301      	movs	r3, #1
    4256:	3219      	adds	r2, #25
    4258:	9901      	ldr	r1, [sp, #4]
    425a:	9800      	ldr	r0, [sp, #0]
    425c:	9e08      	ldr	r6, [sp, #32]
    425e:	47b0      	blx	r6
    4260:	1c43      	adds	r3, r0, #1
    4262:	d1f0      	bne.n	4246 <_printf_common+0x86>
    4264:	2001      	movs	r0, #1
    4266:	4240      	negs	r0, r0
    4268:	bdfe      	pop	{r1, r2, r3, r4, r5, r6, r7, pc}
    426a:	2030      	movs	r0, #48	; 0x30
    426c:	18e1      	adds	r1, r4, r3
    426e:	3143      	adds	r1, #67	; 0x43
    4270:	7008      	strb	r0, [r1, #0]
    4272:	0021      	movs	r1, r4
    4274:	1c5a      	adds	r2, r3, #1
    4276:	3145      	adds	r1, #69	; 0x45
    4278:	7809      	ldrb	r1, [r1, #0]
    427a:	18a2      	adds	r2, r4, r2
    427c:	3243      	adds	r2, #67	; 0x43
    427e:	3302      	adds	r3, #2
    4280:	7011      	strb	r1, [r2, #0]
    4282:	e7c1      	b.n	4208 <_printf_common+0x48>
    4284:	0022      	movs	r2, r4
    4286:	2301      	movs	r3, #1
    4288:	321a      	adds	r2, #26
    428a:	9901      	ldr	r1, [sp, #4]
    428c:	9800      	ldr	r0, [sp, #0]
    428e:	9e08      	ldr	r6, [sp, #32]
    4290:	47b0      	blx	r6
    4292:	1c43      	adds	r3, r0, #1
    4294:	d0e6      	beq.n	4264 <_printf_common+0xa4>
    4296:	3701      	adds	r7, #1
    4298:	e7d1      	b.n	423e <_printf_common+0x7e>
	...

0000429c <_printf_i>:
    429c:	b5f0      	push	{r4, r5, r6, r7, lr}
    429e:	b08b      	sub	sp, #44	; 0x2c
    42a0:	9206      	str	r2, [sp, #24]
    42a2:	000a      	movs	r2, r1
    42a4:	3243      	adds	r2, #67	; 0x43
    42a6:	9307      	str	r3, [sp, #28]
    42a8:	9005      	str	r0, [sp, #20]
    42aa:	9204      	str	r2, [sp, #16]
    42ac:	7e0a      	ldrb	r2, [r1, #24]
    42ae:	000c      	movs	r4, r1
    42b0:	9b10      	ldr	r3, [sp, #64]	; 0x40
    42b2:	2a6e      	cmp	r2, #110	; 0x6e
    42b4:	d100      	bne.n	42b8 <_printf_i+0x1c>
    42b6:	e08f      	b.n	43d8 <_printf_i+0x13c>
    42b8:	d817      	bhi.n	42ea <_printf_i+0x4e>
    42ba:	2a63      	cmp	r2, #99	; 0x63
    42bc:	d02c      	beq.n	4318 <_printf_i+0x7c>
    42be:	d808      	bhi.n	42d2 <_printf_i+0x36>
    42c0:	2a00      	cmp	r2, #0
    42c2:	d100      	bne.n	42c6 <_printf_i+0x2a>
    42c4:	e099      	b.n	43fa <_printf_i+0x15e>
    42c6:	2a58      	cmp	r2, #88	; 0x58
    42c8:	d054      	beq.n	4374 <_printf_i+0xd8>
    42ca:	0026      	movs	r6, r4
    42cc:	3642      	adds	r6, #66	; 0x42
    42ce:	7032      	strb	r2, [r6, #0]
    42d0:	e029      	b.n	4326 <_printf_i+0x8a>
    42d2:	2a64      	cmp	r2, #100	; 0x64
    42d4:	d001      	beq.n	42da <_printf_i+0x3e>
    42d6:	2a69      	cmp	r2, #105	; 0x69
    42d8:	d1f7      	bne.n	42ca <_printf_i+0x2e>
    42da:	6821      	ldr	r1, [r4, #0]
    42dc:	681a      	ldr	r2, [r3, #0]
    42de:	0608      	lsls	r0, r1, #24
    42e0:	d523      	bpl.n	432a <_printf_i+0x8e>
    42e2:	1d11      	adds	r1, r2, #4
    42e4:	6019      	str	r1, [r3, #0]
    42e6:	6815      	ldr	r5, [r2, #0]
    42e8:	e025      	b.n	4336 <_printf_i+0x9a>
    42ea:	2a73      	cmp	r2, #115	; 0x73
    42ec:	d100      	bne.n	42f0 <_printf_i+0x54>
    42ee:	e088      	b.n	4402 <_printf_i+0x166>
    42f0:	d808      	bhi.n	4304 <_printf_i+0x68>
    42f2:	2a6f      	cmp	r2, #111	; 0x6f
    42f4:	d029      	beq.n	434a <_printf_i+0xae>
    42f6:	2a70      	cmp	r2, #112	; 0x70
    42f8:	d1e7      	bne.n	42ca <_printf_i+0x2e>
    42fa:	2220      	movs	r2, #32
    42fc:	6809      	ldr	r1, [r1, #0]
    42fe:	430a      	orrs	r2, r1
    4300:	6022      	str	r2, [r4, #0]
    4302:	e003      	b.n	430c <_printf_i+0x70>
    4304:	2a75      	cmp	r2, #117	; 0x75
    4306:	d020      	beq.n	434a <_printf_i+0xae>
    4308:	2a78      	cmp	r2, #120	; 0x78
    430a:	d1de      	bne.n	42ca <_printf_i+0x2e>
    430c:	0022      	movs	r2, r4
    430e:	2178      	movs	r1, #120	; 0x78
    4310:	3245      	adds	r2, #69	; 0x45
    4312:	7011      	strb	r1, [r2, #0]
    4314:	4a6c      	ldr	r2, [pc, #432]	; (44c8 <_printf_i+0x22c>)
    4316:	e030      	b.n	437a <_printf_i+0xde>
    4318:	000e      	movs	r6, r1
    431a:	681a      	ldr	r2, [r3, #0]
    431c:	3642      	adds	r6, #66	; 0x42
    431e:	1d11      	adds	r1, r2, #4
    4320:	6019      	str	r1, [r3, #0]
    4322:	6813      	ldr	r3, [r2, #0]
    4324:	7033      	strb	r3, [r6, #0]
    4326:	2301      	movs	r3, #1
    4328:	e079      	b.n	441e <_printf_i+0x182>
    432a:	0649      	lsls	r1, r1, #25
    432c:	d5d9      	bpl.n	42e2 <_printf_i+0x46>
    432e:	1d11      	adds	r1, r2, #4
    4330:	6019      	str	r1, [r3, #0]
    4332:	2300      	movs	r3, #0
    4334:	5ed5      	ldrsh	r5, [r2, r3]
    4336:	2d00      	cmp	r5, #0
    4338:	da03      	bge.n	4342 <_printf_i+0xa6>
    433a:	232d      	movs	r3, #45	; 0x2d
    433c:	9a04      	ldr	r2, [sp, #16]
    433e:	426d      	negs	r5, r5
    4340:	7013      	strb	r3, [r2, #0]
    4342:	4b62      	ldr	r3, [pc, #392]	; (44cc <_printf_i+0x230>)
    4344:	270a      	movs	r7, #10
    4346:	9303      	str	r3, [sp, #12]
    4348:	e02f      	b.n	43aa <_printf_i+0x10e>
    434a:	6820      	ldr	r0, [r4, #0]
    434c:	6819      	ldr	r1, [r3, #0]
    434e:	0605      	lsls	r5, r0, #24
    4350:	d503      	bpl.n	435a <_printf_i+0xbe>
    4352:	1d08      	adds	r0, r1, #4
    4354:	6018      	str	r0, [r3, #0]
    4356:	680d      	ldr	r5, [r1, #0]
    4358:	e005      	b.n	4366 <_printf_i+0xca>
    435a:	0640      	lsls	r0, r0, #25
    435c:	d5f9      	bpl.n	4352 <_printf_i+0xb6>
    435e:	680d      	ldr	r5, [r1, #0]
    4360:	1d08      	adds	r0, r1, #4
    4362:	6018      	str	r0, [r3, #0]
    4364:	b2ad      	uxth	r5, r5
    4366:	4b59      	ldr	r3, [pc, #356]	; (44cc <_printf_i+0x230>)
    4368:	2708      	movs	r7, #8
    436a:	9303      	str	r3, [sp, #12]
    436c:	2a6f      	cmp	r2, #111	; 0x6f
    436e:	d018      	beq.n	43a2 <_printf_i+0x106>
    4370:	270a      	movs	r7, #10
    4372:	e016      	b.n	43a2 <_printf_i+0x106>
    4374:	3145      	adds	r1, #69	; 0x45
    4376:	700a      	strb	r2, [r1, #0]
    4378:	4a54      	ldr	r2, [pc, #336]	; (44cc <_printf_i+0x230>)
    437a:	9203      	str	r2, [sp, #12]
    437c:	681a      	ldr	r2, [r3, #0]
    437e:	6821      	ldr	r1, [r4, #0]
    4380:	1d10      	adds	r0, r2, #4
    4382:	6018      	str	r0, [r3, #0]
    4384:	6815      	ldr	r5, [r2, #0]
    4386:	0608      	lsls	r0, r1, #24
    4388:	d522      	bpl.n	43d0 <_printf_i+0x134>
    438a:	07cb      	lsls	r3, r1, #31
    438c:	d502      	bpl.n	4394 <_printf_i+0xf8>
    438e:	2320      	movs	r3, #32
    4390:	4319      	orrs	r1, r3
    4392:	6021      	str	r1, [r4, #0]
    4394:	2710      	movs	r7, #16
    4396:	2d00      	cmp	r5, #0
    4398:	d103      	bne.n	43a2 <_printf_i+0x106>
    439a:	2320      	movs	r3, #32
    439c:	6822      	ldr	r2, [r4, #0]
    439e:	439a      	bics	r2, r3
    43a0:	6022      	str	r2, [r4, #0]
    43a2:	0023      	movs	r3, r4
    43a4:	2200      	movs	r2, #0
    43a6:	3343      	adds	r3, #67	; 0x43
    43a8:	701a      	strb	r2, [r3, #0]
    43aa:	6863      	ldr	r3, [r4, #4]
    43ac:	60a3      	str	r3, [r4, #8]
    43ae:	2b00      	cmp	r3, #0
    43b0:	db5c      	blt.n	446c <_printf_i+0x1d0>
    43b2:	2204      	movs	r2, #4
    43b4:	6821      	ldr	r1, [r4, #0]
    43b6:	4391      	bics	r1, r2
    43b8:	6021      	str	r1, [r4, #0]
    43ba:	2d00      	cmp	r5, #0
    43bc:	d158      	bne.n	4470 <_printf_i+0x1d4>
    43be:	9e04      	ldr	r6, [sp, #16]
    43c0:	2b00      	cmp	r3, #0
    43c2:	d064      	beq.n	448e <_printf_i+0x1f2>
    43c4:	0026      	movs	r6, r4
    43c6:	9b03      	ldr	r3, [sp, #12]
    43c8:	3642      	adds	r6, #66	; 0x42
    43ca:	781b      	ldrb	r3, [r3, #0]
    43cc:	7033      	strb	r3, [r6, #0]
    43ce:	e05e      	b.n	448e <_printf_i+0x1f2>
    43d0:	0648      	lsls	r0, r1, #25
    43d2:	d5da      	bpl.n	438a <_printf_i+0xee>
    43d4:	b2ad      	uxth	r5, r5
    43d6:	e7d8      	b.n	438a <_printf_i+0xee>
    43d8:	6809      	ldr	r1, [r1, #0]
    43da:	681a      	ldr	r2, [r3, #0]
    43dc:	0608      	lsls	r0, r1, #24
    43de:	d505      	bpl.n	43ec <_printf_i+0x150>
    43e0:	1d11      	adds	r1, r2, #4
    43e2:	6019      	str	r1, [r3, #0]
    43e4:	6813      	ldr	r3, [r2, #0]
    43e6:	6962      	ldr	r2, [r4, #20]
    43e8:	601a      	str	r2, [r3, #0]
    43ea:	e006      	b.n	43fa <_printf_i+0x15e>
    43ec:	0649      	lsls	r1, r1, #25
    43ee:	d5f7      	bpl.n	43e0 <_printf_i+0x144>
    43f0:	1d11      	adds	r1, r2, #4
    43f2:	6019      	str	r1, [r3, #0]
    43f4:	6813      	ldr	r3, [r2, #0]
    43f6:	8aa2      	ldrh	r2, [r4, #20]
    43f8:	801a      	strh	r2, [r3, #0]
    43fa:	2300      	movs	r3, #0
    43fc:	9e04      	ldr	r6, [sp, #16]
    43fe:	6123      	str	r3, [r4, #16]
    4400:	e054      	b.n	44ac <_printf_i+0x210>
    4402:	681a      	ldr	r2, [r3, #0]
    4404:	1d11      	adds	r1, r2, #4
    4406:	6019      	str	r1, [r3, #0]
    4408:	6816      	ldr	r6, [r2, #0]
    440a:	2100      	movs	r1, #0
    440c:	6862      	ldr	r2, [r4, #4]
    440e:	0030      	movs	r0, r6
    4410:	f000 f85e 	bl	44d0 <memchr>
    4414:	2800      	cmp	r0, #0
    4416:	d001      	beq.n	441c <_printf_i+0x180>
    4418:	1b80      	subs	r0, r0, r6
    441a:	6060      	str	r0, [r4, #4]
    441c:	6863      	ldr	r3, [r4, #4]
    441e:	6123      	str	r3, [r4, #16]
    4420:	2300      	movs	r3, #0
    4422:	9a04      	ldr	r2, [sp, #16]
    4424:	7013      	strb	r3, [r2, #0]
    4426:	e041      	b.n	44ac <_printf_i+0x210>
    4428:	6923      	ldr	r3, [r4, #16]
    442a:	0032      	movs	r2, r6
    442c:	9906      	ldr	r1, [sp, #24]
    442e:	9805      	ldr	r0, [sp, #20]
    4430:	9d07      	ldr	r5, [sp, #28]
    4432:	47a8      	blx	r5
    4434:	1c43      	adds	r3, r0, #1
    4436:	d043      	beq.n	44c0 <_printf_i+0x224>
    4438:	6823      	ldr	r3, [r4, #0]
    443a:	2500      	movs	r5, #0
    443c:	079b      	lsls	r3, r3, #30
    443e:	d40f      	bmi.n	4460 <_printf_i+0x1c4>
    4440:	9b09      	ldr	r3, [sp, #36]	; 0x24
    4442:	68e0      	ldr	r0, [r4, #12]
    4444:	4298      	cmp	r0, r3
    4446:	da3d      	bge.n	44c4 <_printf_i+0x228>
    4448:	0018      	movs	r0, r3
    444a:	e03b      	b.n	44c4 <_printf_i+0x228>
    444c:	0022      	movs	r2, r4
    444e:	2301      	movs	r3, #1
    4450:	3219      	adds	r2, #25
    4452:	9906      	ldr	r1, [sp, #24]
    4454:	9805      	ldr	r0, [sp, #20]
    4456:	9e07      	ldr	r6, [sp, #28]
    4458:	47b0      	blx	r6
    445a:	1c43      	adds	r3, r0, #1
    445c:	d030      	beq.n	44c0 <_printf_i+0x224>
    445e:	3501      	adds	r5, #1
    4460:	68e3      	ldr	r3, [r4, #12]
    4462:	9a09      	ldr	r2, [sp, #36]	; 0x24
    4464:	1a9b      	subs	r3, r3, r2
    4466:	429d      	cmp	r5, r3
    4468:	dbf0      	blt.n	444c <_printf_i+0x1b0>
    446a:	e7e9      	b.n	4440 <_printf_i+0x1a4>
    446c:	2d00      	cmp	r5, #0
    446e:	d0a9      	beq.n	43c4 <_printf_i+0x128>
    4470:	9e04      	ldr	r6, [sp, #16]
    4472:	0028      	movs	r0, r5
    4474:	0039      	movs	r1, r7
    4476:	f7fd fea9 	bl	21cc <__aeabi_uidivmod>
    447a:	9b03      	ldr	r3, [sp, #12]
    447c:	3e01      	subs	r6, #1
    447e:	5c5b      	ldrb	r3, [r3, r1]
    4480:	0028      	movs	r0, r5
    4482:	7033      	strb	r3, [r6, #0]
    4484:	0039      	movs	r1, r7
    4486:	f7fd fe1b 	bl	20c0 <__udivsi3>
    448a:	1e05      	subs	r5, r0, #0
    448c:	d1f1      	bne.n	4472 <_printf_i+0x1d6>
    448e:	2f08      	cmp	r7, #8
    4490:	d109      	bne.n	44a6 <_printf_i+0x20a>
    4492:	6823      	ldr	r3, [r4, #0]
    4494:	07db      	lsls	r3, r3, #31
    4496:	d506      	bpl.n	44a6 <_printf_i+0x20a>
    4498:	6863      	ldr	r3, [r4, #4]
    449a:	6922      	ldr	r2, [r4, #16]
    449c:	4293      	cmp	r3, r2
    449e:	dc02      	bgt.n	44a6 <_printf_i+0x20a>
    44a0:	2330      	movs	r3, #48	; 0x30
    44a2:	3e01      	subs	r6, #1
    44a4:	7033      	strb	r3, [r6, #0]
    44a6:	9b04      	ldr	r3, [sp, #16]
    44a8:	1b9b      	subs	r3, r3, r6
    44aa:	6123      	str	r3, [r4, #16]
    44ac:	9b07      	ldr	r3, [sp, #28]
    44ae:	aa09      	add	r2, sp, #36	; 0x24
    44b0:	9300      	str	r3, [sp, #0]
    44b2:	0021      	movs	r1, r4
    44b4:	9b06      	ldr	r3, [sp, #24]
    44b6:	9805      	ldr	r0, [sp, #20]
    44b8:	f7ff fe82 	bl	41c0 <_printf_common>
    44bc:	1c43      	adds	r3, r0, #1
    44be:	d1b3      	bne.n	4428 <_printf_i+0x18c>
    44c0:	2001      	movs	r0, #1
    44c2:	4240      	negs	r0, r0
    44c4:	b00b      	add	sp, #44	; 0x2c
    44c6:	bdf0      	pop	{r4, r5, r6, r7, pc}
    44c8:	000046a2 	.word	0x000046a2
    44cc:	00004691 	.word	0x00004691

000044d0 <memchr>:
    44d0:	b2c9      	uxtb	r1, r1
    44d2:	1882      	adds	r2, r0, r2
    44d4:	4290      	cmp	r0, r2
    44d6:	d101      	bne.n	44dc <memchr+0xc>
    44d8:	2000      	movs	r0, #0
    44da:	4770      	bx	lr
    44dc:	7803      	ldrb	r3, [r0, #0]
    44de:	428b      	cmp	r3, r1
    44e0:	d0fb      	beq.n	44da <memchr+0xa>
    44e2:	3001      	adds	r0, #1
    44e4:	e7f6      	b.n	44d4 <memchr+0x4>

000044e6 <memcpy>:
    44e6:	2300      	movs	r3, #0
    44e8:	b510      	push	{r4, lr}
    44ea:	429a      	cmp	r2, r3
    44ec:	d100      	bne.n	44f0 <memcpy+0xa>
    44ee:	bd10      	pop	{r4, pc}
    44f0:	5ccc      	ldrb	r4, [r1, r3]
    44f2:	54c4      	strb	r4, [r0, r3]
    44f4:	3301      	adds	r3, #1
    44f6:	e7f8      	b.n	44ea <memcpy+0x4>

000044f8 <memmove>:
    44f8:	b510      	push	{r4, lr}
    44fa:	4288      	cmp	r0, r1
    44fc:	d902      	bls.n	4504 <memmove+0xc>
    44fe:	188b      	adds	r3, r1, r2
    4500:	4298      	cmp	r0, r3
    4502:	d308      	bcc.n	4516 <memmove+0x1e>
    4504:	2300      	movs	r3, #0
    4506:	429a      	cmp	r2, r3
    4508:	d007      	beq.n	451a <memmove+0x22>
    450a:	5ccc      	ldrb	r4, [r1, r3]
    450c:	54c4      	strb	r4, [r0, r3]
    450e:	3301      	adds	r3, #1
    4510:	e7f9      	b.n	4506 <memmove+0xe>
    4512:	5c8b      	ldrb	r3, [r1, r2]
    4514:	5483      	strb	r3, [r0, r2]
    4516:	3a01      	subs	r2, #1
    4518:	d2fb      	bcs.n	4512 <memmove+0x1a>
    451a:	bd10      	pop	{r4, pc}

0000451c <_realloc_r>:
    451c:	b5f8      	push	{r3, r4, r5, r6, r7, lr}
    451e:	0007      	movs	r7, r0
    4520:	000d      	movs	r5, r1
    4522:	0016      	movs	r6, r2
    4524:	2900      	cmp	r1, #0
    4526:	d105      	bne.n	4534 <_realloc_r+0x18>
    4528:	0011      	movs	r1, r2
    452a:	f7ff fc47 	bl	3dbc <_malloc_r>
    452e:	0004      	movs	r4, r0
    4530:	0020      	movs	r0, r4
    4532:	bdf8      	pop	{r3, r4, r5, r6, r7, pc}
    4534:	2a00      	cmp	r2, #0
    4536:	d103      	bne.n	4540 <_realloc_r+0x24>
    4538:	f7ff fbf6 	bl	3d28 <_free_r>
    453c:	0034      	movs	r4, r6
    453e:	e7f7      	b.n	4530 <_realloc_r+0x14>
    4540:	f000 f812 	bl	4568 <_malloc_usable_size_r>
    4544:	002c      	movs	r4, r5
    4546:	4286      	cmp	r6, r0
    4548:	d9f2      	bls.n	4530 <_realloc_r+0x14>
    454a:	0031      	movs	r1, r6
    454c:	0038      	movs	r0, r7
    454e:	f7ff fc35 	bl	3dbc <_malloc_r>
    4552:	1e04      	subs	r4, r0, #0
    4554:	d0ec      	beq.n	4530 <_realloc_r+0x14>
    4556:	0029      	movs	r1, r5
    4558:	0032      	movs	r2, r6
    455a:	f7ff ffc4 	bl	44e6 <memcpy>
    455e:	0029      	movs	r1, r5
    4560:	0038      	movs	r0, r7
    4562:	f7ff fbe1 	bl	3d28 <_free_r>
    4566:	e7e3      	b.n	4530 <_realloc_r+0x14>

00004568 <_malloc_usable_size_r>:
    4568:	1f0b      	subs	r3, r1, #4
    456a:	681b      	ldr	r3, [r3, #0]
    456c:	1f18      	subs	r0, r3, #4
    456e:	2b00      	cmp	r3, #0
    4570:	da01      	bge.n	4576 <_malloc_usable_size_r+0xe>
    4572:	580b      	ldr	r3, [r1, r0]
    4574:	18c0      	adds	r0, r0, r3
    4576:	4770      	bx	lr
    4578:	42000800 	.word	0x42000800
    457c:	42000c00 	.word	0x42000c00
    4580:	42001000 	.word	0x42001000
    4584:	42001400 	.word	0x42001400
    4588:	42001800 	.word	0x42001800
    458c:	42001c00 	.word	0x42001c00
    4590:	0000161e 	.word	0x0000161e
    4594:	0000161a 	.word	0x0000161a
    4598:	0000161a 	.word	0x0000161a
    459c:	00001680 	.word	0x00001680
    45a0:	00001680 	.word	0x00001680
    45a4:	00001632 	.word	0x00001632
    45a8:	00001624 	.word	0x00001624
    45ac:	00001638 	.word	0x00001638
    45b0:	0000166e 	.word	0x0000166e
    45b4:	00001840 	.word	0x00001840
    45b8:	00001820 	.word	0x00001820
    45bc:	00001820 	.word	0x00001820
    45c0:	000018ac 	.word	0x000018ac
    45c4:	00001832 	.word	0x00001832
    45c8:	0000184e 	.word	0x0000184e
    45cc:	00001824 	.word	0x00001824
    45d0:	0000185c 	.word	0x0000185c
    45d4:	0000189c 	.word	0x0000189c
    45d8:	64616552 	.word	0x64616552
    45dc:	20676e69 	.word	0x20676e69
    45e0:	706d6f63 	.word	0x706d6f63
    45e4:	6574656c 	.word	0x6574656c
    45e8:	00000d0a 	.word	0x00000d0a
    45ec:	20206425 	.word	0x20206425
    45f0:	20202020 	.word	0x20202020
    45f4:	20206425 	.word	0x20206425
    45f8:	2d202020 	.word	0x2d202020
    45fc:	00000d0a 	.word	0x00000d0a
    4600:	00002c04 	.word	0x00002c04
    4604:	00002be6 	.word	0x00002be6
    4608:	00002ba0 	.word	0x00002ba0
    460c:	00002abe 	.word	0x00002abe
    4610:	00002ba0 	.word	0x00002ba0
    4614:	00002bd8 	.word	0x00002bd8
    4618:	00002ba0 	.word	0x00002ba0
    461c:	00002abe 	.word	0x00002abe
    4620:	00002be6 	.word	0x00002be6
    4624:	00002be6 	.word	0x00002be6
    4628:	00002bd8 	.word	0x00002bd8
    462c:	00002abe 	.word	0x00002abe
    4630:	00002ab6 	.word	0x00002ab6
    4634:	00002ab6 	.word	0x00002ab6
    4638:	00002ab6 	.word	0x00002ab6
    463c:	00002e1c 	.word	0x00002e1c
    4640:	00003264 	.word	0x00003264
    4644:	00003124 	.word	0x00003124
    4648:	00003124 	.word	0x00003124
    464c:	00003120 	.word	0x00003120
    4650:	0000323c 	.word	0x0000323c
    4654:	0000323c 	.word	0x0000323c
    4658:	0000322e 	.word	0x0000322e
    465c:	00003120 	.word	0x00003120
    4660:	0000323c 	.word	0x0000323c
    4664:	0000322e 	.word	0x0000322e
    4668:	0000323c 	.word	0x0000323c
    466c:	00003120 	.word	0x00003120
    4670:	00003244 	.word	0x00003244
    4674:	00003244 	.word	0x00003244
    4678:	00003244 	.word	0x00003244
    467c:	00003448 	.word	0x00003448
    4680:	2b302d23 	.word	0x2b302d23
    4684:	6c680020 	.word	0x6c680020
    4688:	6665004c 	.word	0x6665004c
    468c:	47464567 	.word	0x47464567
    4690:	00          	.byte	0x00
    4691:	30          	.byte	0x30
    4692:	3231      	.short	0x3231
    4694:	36353433 	.word	0x36353433
    4698:	41393837 	.word	0x41393837
    469c:	45444342 	.word	0x45444342
    46a0:	31300046 	.word	0x31300046
    46a4:	35343332 	.word	0x35343332
    46a8:	39383736 	.word	0x39383736
    46ac:	64636261 	.word	0x64636261
    46b0:	00006665 	.word	0x00006665

000046b4 <_init>:
    46b4:	b5f8      	push	{r3, r4, r5, r6, r7, lr}
    46b6:	46c0      	nop			; (mov r8, r8)
    46b8:	bcf8      	pop	{r3, r4, r5, r6, r7}
    46ba:	bc08      	pop	{r3}
    46bc:	469e      	mov	lr, r3
    46be:	4770      	bx	lr

000046c0 <__init_array_start>:
    46c0:	000000dd 	.word	0x000000dd

000046c4 <_fini>:
    46c4:	b5f8      	push	{r3, r4, r5, r6, r7, lr}
    46c6:	46c0      	nop			; (mov r8, r8)
    46c8:	bcf8      	pop	{r3, r4, r5, r6, r7}
    46ca:	bc08      	pop	{r3}
    46cc:	469e      	mov	lr, r3
    46ce:	4770      	bx	lr

000046d0 <__fini_array_start>:
    46d0:	000000b5 	.word	0x000000b5

Disassembly of section .relocate:

20000000 <portable_delay_cycles>:
RAMFUNC
void portable_delay_cycles(unsigned long n)
{
	UNUSED(n);

	__asm (
20000000:	f3bf 8f5f 	dmb	sy
20000004:	3801      	subs	r0, #1
20000006:	2800      	cmp	r0, #0
20000008:	d1fa      	bne.n	20000000 <portable_delay_cycles>
		"SUB r0, r0, #1 \n"
#endif
		"CMP r0, #0  \n"
		"BNE loop         "
	);
}
2000000a:	4770      	bx	lr

2000000c <g_interrupt_enabled>:
2000000c:	0001 0000                                   ....

20000010 <wr_buffer>:
20000010:	0100 0302 0504 0706 0000 0000 0000 0000     ................
	...

20000110 <_impure_ptr>:
20000110:	0114 2000                                   ... 

20000114 <impure_data>:
	...
